
codemap.exe:     file format pei-i386


Disassembly of section .text:

00401000 <.text>:
  401000:	8b 41 04             	mov    0x4(%ecx),%eax
  401003:	40                   	inc    %eax
  401004:	c3                   	ret    
  401005:	cc                   	int3   
  401006:	cc                   	int3   
  401007:	cc                   	int3   
  401008:	cc                   	int3   
  401009:	cc                   	int3   
  40100a:	cc                   	int3   
  40100b:	cc                   	int3   
  40100c:	cc                   	int3   
  40100d:	cc                   	int3   
  40100e:	cc                   	int3   
  40100f:	cc                   	int3   
  401010:	8b 41 04             	mov    0x4(%ecx),%eax
  401013:	0f af c0             	imul   %eax,%eax
  401016:	c3                   	ret    
  401017:	cc                   	int3   
  401018:	cc                   	int3   
  401019:	cc                   	int3   
  40101a:	cc                   	int3   
  40101b:	cc                   	int3   
  40101c:	cc                   	int3   
  40101d:	cc                   	int3   
  40101e:	cc                   	int3   
  40101f:	cc                   	int3   
  401020:	8b 41 04             	mov    0x4(%ecx),%eax
  401023:	83 e8 21             	sub    $0x21,%eax
  401026:	c3                   	ret    
  401027:	cc                   	int3   
  401028:	cc                   	int3   
  401029:	cc                   	int3   
  40102a:	cc                   	int3   
  40102b:	cc                   	int3   
  40102c:	cc                   	int3   
  40102d:	cc                   	int3   
  40102e:	cc                   	int3   
  40102f:	cc                   	int3   
  401030:	8b 41 04             	mov    0x4(%ecx),%eax
  401033:	99                   	cltd   
  401034:	b9 68 fa 24 00       	mov    $0x24fa68,%ecx
  401039:	f7 f9                	idiv   %ecx
  40103b:	8b c2                	mov    %edx,%eax
  40103d:	c3                   	ret    
  40103e:	cc                   	int3   
  40103f:	cc                   	int3   
  401040:	8b 41 04             	mov    0x4(%ecx),%eax
  401043:	05 63 c5 54 00       	add    $0x54c563,%eax
  401048:	c3                   	ret    
  401049:	cc                   	int3   
  40104a:	cc                   	int3   
  40104b:	cc                   	int3   
  40104c:	cc                   	int3   
  40104d:	cc                   	int3   
  40104e:	cc                   	int3   
  40104f:	cc                   	int3   
  401050:	8b 41 04             	mov    0x4(%ecx),%eax
  401053:	05 c7 4a 5b 07       	add    $0x75b4ac7,%eax
  401058:	c3                   	ret    
  401059:	cc                   	int3   
  40105a:	cc                   	int3   
  40105b:	cc                   	int3   
  40105c:	cc                   	int3   
  40105d:	cc                   	int3   
  40105e:	cc                   	int3   
  40105f:	cc                   	int3   
  401060:	8b 41 04             	mov    0x4(%ecx),%eax
  401063:	05 bf 4a 5b 07       	add    $0x75b4abf,%eax
  401068:	c3                   	ret    
  401069:	cc                   	int3   
  40106a:	cc                   	int3   
  40106b:	cc                   	int3   
  40106c:	cc                   	int3   
  40106d:	cc                   	int3   
  40106e:	cc                   	int3   
  40106f:	cc                   	int3   
  401070:	8b 41 04             	mov    0x4(%ecx),%eax
  401073:	69 c0 5b 93 03 00    	imul   $0x3935b,%eax,%eax
  401079:	c3                   	ret    
  40107a:	cc                   	int3   
  40107b:	cc                   	int3   
  40107c:	cc                   	int3   
  40107d:	cc                   	int3   
  40107e:	cc                   	int3   
  40107f:	cc                   	int3   
  401080:	8b 41 04             	mov    0x4(%ecx),%eax
  401083:	d1 f8                	sar    %eax
  401085:	c3                   	ret    
  401086:	cc                   	int3   
  401087:	cc                   	int3   
  401088:	cc                   	int3   
  401089:	cc                   	int3   
  40108a:	cc                   	int3   
  40108b:	cc                   	int3   
  40108c:	cc                   	int3   
  40108d:	cc                   	int3   
  40108e:	cc                   	int3   
  40108f:	cc                   	int3   
  401090:	8b 41 04             	mov    0x4(%ecx),%eax
  401093:	05 37 01 00 00       	add    $0x137,%eax
  401098:	c3                   	ret    
  401099:	cc                   	int3   
  40109a:	cc                   	int3   
  40109b:	cc                   	int3   
  40109c:	cc                   	int3   
  40109d:	cc                   	int3   
  40109e:	cc                   	int3   
  40109f:	cc                   	int3   
  4010a0:	8b 41 04             	mov    0x4(%ecx),%eax
  4010a3:	05 6b 04 00 00       	add    $0x46b,%eax
  4010a8:	c3                   	ret    
  4010a9:	cc                   	int3   
  4010aa:	cc                   	int3   
  4010ab:	cc                   	int3   
  4010ac:	cc                   	int3   
  4010ad:	cc                   	int3   
  4010ae:	cc                   	int3   
  4010af:	cc                   	int3   
  4010b0:	8b 41 04             	mov    0x4(%ecx),%eax
  4010b3:	2d 29 82 00 00       	sub    $0x8229,%eax
  4010b8:	c3                   	ret    
  4010b9:	cc                   	int3   
  4010ba:	cc                   	int3   
  4010bb:	cc                   	int3   
  4010bc:	cc                   	int3   
  4010bd:	cc                   	int3   
  4010be:	cc                   	int3   
  4010bf:	cc                   	int3   
  4010c0:	8b 41 04             	mov    0x4(%ecx),%eax
  4010c3:	05 fb e0 01 00       	add    $0x1e0fb,%eax
  4010c8:	c3                   	ret    
  4010c9:	cc                   	int3   
  4010ca:	cc                   	int3   
  4010cb:	cc                   	int3   
  4010cc:	cc                   	int3   
  4010cd:	cc                   	int3   
  4010ce:	cc                   	int3   
  4010cf:	cc                   	int3   
  4010d0:	8b 41 04             	mov    0x4(%ecx),%eax
  4010d3:	2d c5 bd 23 00       	sub    $0x23bdc5,%eax
  4010d8:	c3                   	ret    
  4010d9:	cc                   	int3   
  4010da:	cc                   	int3   
  4010db:	cc                   	int3   
  4010dc:	cc                   	int3   
  4010dd:	cc                   	int3   
  4010de:	cc                   	int3   
  4010df:	cc                   	int3   
  4010e0:	8b 41 04             	mov    0x4(%ecx),%eax
  4010e3:	05 41 87 14 00       	add    $0x148741,%eax
  4010e8:	c3                   	ret    
  4010e9:	cc                   	int3   
  4010ea:	cc                   	int3   
  4010eb:	cc                   	int3   
  4010ec:	cc                   	int3   
  4010ed:	cc                   	int3   
  4010ee:	cc                   	int3   
  4010ef:	cc                   	int3   
  4010f0:	8b 41 04             	mov    0x4(%ecx),%eax
  4010f3:	2d 51 a6 45 00       	sub    $0x45a651,%eax
  4010f8:	c3                   	ret    
  4010f9:	cc                   	int3   
  4010fa:	cc                   	int3   
  4010fb:	cc                   	int3   
  4010fc:	cc                   	int3   
  4010fd:	cc                   	int3   
  4010fe:	cc                   	int3   
  4010ff:	cc                   	int3   
  401100:	8b 41 04             	mov    0x4(%ecx),%eax
  401103:	05 97 9a 56 00       	add    $0x569a97,%eax
  401108:	c3                   	ret    
  401109:	cc                   	int3   
  40110a:	cc                   	int3   
  40110b:	cc                   	int3   
  40110c:	cc                   	int3   
  40110d:	cc                   	int3   
  40110e:	cc                   	int3   
  40110f:	cc                   	int3   
  401110:	8b 41 04             	mov    0x4(%ecx),%eax
  401113:	2d 56 9d 19 00       	sub    $0x199d56,%eax
  401118:	c3                   	ret    
  401119:	cc                   	int3   
  40111a:	cc                   	int3   
  40111b:	cc                   	int3   
  40111c:	cc                   	int3   
  40111d:	cc                   	int3   
  40111e:	cc                   	int3   
  40111f:	cc                   	int3   
  401120:	8b 41 04             	mov    0x4(%ecx),%eax
  401123:	05 3d e6 46 00       	add    $0x46e63d,%eax
  401128:	c3                   	ret    
  401129:	cc                   	int3   
  40112a:	cc                   	int3   
  40112b:	cc                   	int3   
  40112c:	cc                   	int3   
  40112d:	cc                   	int3   
  40112e:	cc                   	int3   
  40112f:	cc                   	int3   
  401130:	8b 41 04             	mov    0x4(%ecx),%eax
  401133:	2d 9f 00 02 00       	sub    $0x2009f,%eax
  401138:	c3                   	ret    
  401139:	cc                   	int3   
  40113a:	cc                   	int3   
  40113b:	cc                   	int3   
  40113c:	cc                   	int3   
  40113d:	cc                   	int3   
  40113e:	cc                   	int3   
  40113f:	cc                   	int3   
  401140:	56                   	push   %esi
  401141:	8b f1                	mov    %ecx,%esi
  401143:	8b 46 04             	mov    0x4(%esi),%eax
  401146:	8b c8                	mov    %eax,%ecx
  401148:	0f af c8             	imul   %eax,%ecx
  40114b:	0f af c8             	imul   %eax,%ecx
  40114e:	c1 f8 05             	sar    $0x5,%eax
  401151:	8d 14 c5 00 00 00 00 	lea    0x0(,%eax,8),%edx
  401158:	83 c1 04             	add    $0x4,%ecx
  40115b:	2b d0                	sub    %eax,%edx
  40115d:	8d 44 12 21          	lea    0x21(%edx,%edx,1),%eax
  401161:	8b 16                	mov    (%esi),%edx
  401163:	c1 f9 02             	sar    $0x2,%ecx
  401166:	0f af c8             	imul   %eax,%ecx
  401169:	8b 02                	mov    (%edx),%eax
  40116b:	89 4e 04             	mov    %ecx,0x4(%esi)
  40116e:	8b ce                	mov    %esi,%ecx
  401170:	ff d0                	call   *%eax
  401172:	8b 16                	mov    (%esi),%edx
  401174:	89 46 04             	mov    %eax,0x4(%esi)
  401177:	8b 42 04             	mov    0x4(%edx),%eax
  40117a:	8b ce                	mov    %esi,%ecx
  40117c:	ff d0                	call   *%eax
  40117e:	8b 16                	mov    (%esi),%edx
  401180:	89 46 04             	mov    %eax,0x4(%esi)
  401183:	8b 42 08             	mov    0x8(%edx),%eax
  401186:	8b ce                	mov    %esi,%ecx
  401188:	ff d0                	call   *%eax
  40118a:	8b 16                	mov    (%esi),%edx
  40118c:	89 46 04             	mov    %eax,0x4(%esi)
  40118f:	8b 42 0c             	mov    0xc(%edx),%eax
  401192:	8b ce                	mov    %esi,%ecx
  401194:	ff d0                	call   *%eax
  401196:	8b 16                	mov    (%esi),%edx
  401198:	89 46 04             	mov    %eax,0x4(%esi)
  40119b:	8b 42 10             	mov    0x10(%edx),%eax
  40119e:	8b ce                	mov    %esi,%ecx
  4011a0:	ff d0                	call   *%eax
  4011a2:	8b 16                	mov    (%esi),%edx
  4011a4:	89 46 04             	mov    %eax,0x4(%esi)
  4011a7:	8b 42 14             	mov    0x14(%edx),%eax
  4011aa:	8b ce                	mov    %esi,%ecx
  4011ac:	ff d0                	call   *%eax
  4011ae:	8b 16                	mov    (%esi),%edx
  4011b0:	89 46 04             	mov    %eax,0x4(%esi)
  4011b3:	8b 42 18             	mov    0x18(%edx),%eax
  4011b6:	8b ce                	mov    %esi,%ecx
  4011b8:	ff d0                	call   *%eax
  4011ba:	8b 16                	mov    (%esi),%edx
  4011bc:	89 46 04             	mov    %eax,0x4(%esi)
  4011bf:	8b 42 1c             	mov    0x1c(%edx),%eax
  4011c2:	8b ce                	mov    %esi,%ecx
  4011c4:	ff d0                	call   *%eax
  4011c6:	8b 16                	mov    (%esi),%edx
  4011c8:	89 46 04             	mov    %eax,0x4(%esi)
  4011cb:	8b 42 20             	mov    0x20(%edx),%eax
  4011ce:	8b ce                	mov    %esi,%ecx
  4011d0:	ff d0                	call   *%eax
  4011d2:	8b 16                	mov    (%esi),%edx
  4011d4:	89 46 04             	mov    %eax,0x4(%esi)
  4011d7:	8b 42 24             	mov    0x24(%edx),%eax
  4011da:	8b ce                	mov    %esi,%ecx
  4011dc:	ff d0                	call   *%eax
  4011de:	8b 16                	mov    (%esi),%edx
  4011e0:	89 46 04             	mov    %eax,0x4(%esi)
  4011e3:	8b 42 28             	mov    0x28(%edx),%eax
  4011e6:	8b ce                	mov    %esi,%ecx
  4011e8:	ff d0                	call   *%eax
  4011ea:	8b 16                	mov    (%esi),%edx
  4011ec:	89 46 04             	mov    %eax,0x4(%esi)
  4011ef:	8b 42 2c             	mov    0x2c(%edx),%eax
  4011f2:	8b ce                	mov    %esi,%ecx
  4011f4:	ff d0                	call   *%eax
  4011f6:	8b 16                	mov    (%esi),%edx
  4011f8:	89 46 04             	mov    %eax,0x4(%esi)
  4011fb:	8b 42 30             	mov    0x30(%edx),%eax
  4011fe:	8b ce                	mov    %esi,%ecx
  401200:	ff d0                	call   *%eax
  401202:	8b 16                	mov    (%esi),%edx
  401204:	89 46 04             	mov    %eax,0x4(%esi)
  401207:	8b ce                	mov    %esi,%ecx
  401209:	8b 42 34             	mov    0x34(%edx),%eax
  40120c:	ff d0                	call   *%eax
  40120e:	8b 16                	mov    (%esi),%edx
  401210:	89 46 04             	mov    %eax,0x4(%esi)
  401213:	8b 42 38             	mov    0x38(%edx),%eax
  401216:	8b ce                	mov    %esi,%ecx
  401218:	ff d0                	call   *%eax
  40121a:	8b 16                	mov    (%esi),%edx
  40121c:	89 46 04             	mov    %eax,0x4(%esi)
  40121f:	8b 42 3c             	mov    0x3c(%edx),%eax
  401222:	8b ce                	mov    %esi,%ecx
  401224:	ff d0                	call   *%eax
  401226:	8b 16                	mov    (%esi),%edx
  401228:	89 46 04             	mov    %eax,0x4(%esi)
  40122b:	8b 42 40             	mov    0x40(%edx),%eax
  40122e:	8b ce                	mov    %esi,%ecx
  401230:	ff d0                	call   *%eax
  401232:	8b 16                	mov    (%esi),%edx
  401234:	89 46 04             	mov    %eax,0x4(%esi)
  401237:	8b 42 44             	mov    0x44(%edx),%eax
  40123a:	8b ce                	mov    %esi,%ecx
  40123c:	ff d0                	call   *%eax
  40123e:	8b 16                	mov    (%esi),%edx
  401240:	89 46 04             	mov    %eax,0x4(%esi)
  401243:	8b 42 48             	mov    0x48(%edx),%eax
  401246:	8b ce                	mov    %esi,%ecx
  401248:	ff d0                	call   *%eax
  40124a:	8b 16                	mov    (%esi),%edx
  40124c:	89 46 04             	mov    %eax,0x4(%esi)
  40124f:	8b 42 4c             	mov    0x4c(%edx),%eax
  401252:	8b ce                	mov    %esi,%ecx
  401254:	ff d0                	call   *%eax
  401256:	8b 16                	mov    (%esi),%edx
  401258:	89 46 04             	mov    %eax,0x4(%esi)
  40125b:	8b 02                	mov    (%edx),%eax
  40125d:	8b ce                	mov    %esi,%ecx
  40125f:	ff d0                	call   *%eax
  401261:	8b 16                	mov    (%esi),%edx
  401263:	89 46 04             	mov    %eax,0x4(%esi)
  401266:	8b 42 04             	mov    0x4(%edx),%eax
  401269:	8b ce                	mov    %esi,%ecx
  40126b:	ff d0                	call   *%eax
  40126d:	8b 16                	mov    (%esi),%edx
  40126f:	89 46 04             	mov    %eax,0x4(%esi)
  401272:	8b 42 08             	mov    0x8(%edx),%eax
  401275:	8b ce                	mov    %esi,%ecx
  401277:	ff d0                	call   *%eax
  401279:	8b 16                	mov    (%esi),%edx
  40127b:	89 46 04             	mov    %eax,0x4(%esi)
  40127e:	8b 42 0c             	mov    0xc(%edx),%eax
  401281:	8b ce                	mov    %esi,%ecx
  401283:	ff d0                	call   *%eax
  401285:	8b 16                	mov    (%esi),%edx
  401287:	89 46 04             	mov    %eax,0x4(%esi)
  40128a:	8b 42 10             	mov    0x10(%edx),%eax
  40128d:	8b ce                	mov    %esi,%ecx
  40128f:	ff d0                	call   *%eax
  401291:	8b 16                	mov    (%esi),%edx
  401293:	89 46 04             	mov    %eax,0x4(%esi)
  401296:	8b 42 14             	mov    0x14(%edx),%eax
  401299:	8b ce                	mov    %esi,%ecx
  40129b:	ff d0                	call   *%eax
  40129d:	8b 16                	mov    (%esi),%edx
  40129f:	89 46 04             	mov    %eax,0x4(%esi)
  4012a2:	8b 42 18             	mov    0x18(%edx),%eax
  4012a5:	8b ce                	mov    %esi,%ecx
  4012a7:	ff d0                	call   *%eax
  4012a9:	8b 16                	mov    (%esi),%edx
  4012ab:	89 46 04             	mov    %eax,0x4(%esi)
  4012ae:	8b 42 1c             	mov    0x1c(%edx),%eax
  4012b1:	8b ce                	mov    %esi,%ecx
  4012b3:	ff d0                	call   *%eax
  4012b5:	8b 16                	mov    (%esi),%edx
  4012b7:	89 46 04             	mov    %eax,0x4(%esi)
  4012ba:	8b 42 20             	mov    0x20(%edx),%eax
  4012bd:	8b ce                	mov    %esi,%ecx
  4012bf:	ff d0                	call   *%eax
  4012c1:	8b 16                	mov    (%esi),%edx
  4012c3:	89 46 04             	mov    %eax,0x4(%esi)
  4012c6:	8b 42 24             	mov    0x24(%edx),%eax
  4012c9:	8b ce                	mov    %esi,%ecx
  4012cb:	ff d0                	call   *%eax
  4012cd:	8b 16                	mov    (%esi),%edx
  4012cf:	89 46 04             	mov    %eax,0x4(%esi)
  4012d2:	8b 42 28             	mov    0x28(%edx),%eax
  4012d5:	8b ce                	mov    %esi,%ecx
  4012d7:	ff d0                	call   *%eax
  4012d9:	8b 16                	mov    (%esi),%edx
  4012db:	89 46 04             	mov    %eax,0x4(%esi)
  4012de:	8b 42 2c             	mov    0x2c(%edx),%eax
  4012e1:	8b ce                	mov    %esi,%ecx
  4012e3:	ff d0                	call   *%eax
  4012e5:	8b 16                	mov    (%esi),%edx
  4012e7:	89 46 04             	mov    %eax,0x4(%esi)
  4012ea:	8b 42 30             	mov    0x30(%edx),%eax
  4012ed:	8b ce                	mov    %esi,%ecx
  4012ef:	ff d0                	call   *%eax
  4012f1:	8b 16                	mov    (%esi),%edx
  4012f3:	89 46 04             	mov    %eax,0x4(%esi)
  4012f6:	8b 42 34             	mov    0x34(%edx),%eax
  4012f9:	8b ce                	mov    %esi,%ecx
  4012fb:	ff d0                	call   *%eax
  4012fd:	8b 16                	mov    (%esi),%edx
  4012ff:	89 46 04             	mov    %eax,0x4(%esi)
  401302:	8b 42 38             	mov    0x38(%edx),%eax
  401305:	8b ce                	mov    %esi,%ecx
  401307:	ff d0                	call   *%eax
  401309:	8b 16                	mov    (%esi),%edx
  40130b:	89 46 04             	mov    %eax,0x4(%esi)
  40130e:	8b 42 3c             	mov    0x3c(%edx),%eax
  401311:	8b ce                	mov    %esi,%ecx
  401313:	ff d0                	call   *%eax
  401315:	8b 16                	mov    (%esi),%edx
  401317:	89 46 04             	mov    %eax,0x4(%esi)
  40131a:	8b 42 40             	mov    0x40(%edx),%eax
  40131d:	8b ce                	mov    %esi,%ecx
  40131f:	ff d0                	call   *%eax
  401321:	8b 16                	mov    (%esi),%edx
  401323:	89 46 04             	mov    %eax,0x4(%esi)
  401326:	8b 42 44             	mov    0x44(%edx),%eax
  401329:	8b ce                	mov    %esi,%ecx
  40132b:	ff d0                	call   *%eax
  40132d:	8b 16                	mov    (%esi),%edx
  40132f:	89 46 04             	mov    %eax,0x4(%esi)
  401332:	8b 42 48             	mov    0x48(%edx),%eax
  401335:	8b ce                	mov    %esi,%ecx
  401337:	ff d0                	call   *%eax
  401339:	8b 16                	mov    (%esi),%edx
  40133b:	89 46 04             	mov    %eax,0x4(%esi)
  40133e:	8b 42 4c             	mov    0x4c(%edx),%eax
  401341:	8b ce                	mov    %esi,%ecx
  401343:	ff d0                	call   *%eax
  401345:	8b 16                	mov    (%esi),%edx
  401347:	89 46 04             	mov    %eax,0x4(%esi)
  40134a:	8b 02                	mov    (%edx),%eax
  40134c:	8b ce                	mov    %esi,%ecx
  40134e:	ff d0                	call   *%eax
  401350:	8b 16                	mov    (%esi),%edx
  401352:	89 46 04             	mov    %eax,0x4(%esi)
  401355:	8b 42 04             	mov    0x4(%edx),%eax
  401358:	8b ce                	mov    %esi,%ecx
  40135a:	ff d0                	call   *%eax
  40135c:	8b 16                	mov    (%esi),%edx
  40135e:	89 46 04             	mov    %eax,0x4(%esi)
  401361:	8b 42 08             	mov    0x8(%edx),%eax
  401364:	8b ce                	mov    %esi,%ecx
  401366:	ff d0                	call   *%eax
  401368:	8b 16                	mov    (%esi),%edx
  40136a:	89 46 04             	mov    %eax,0x4(%esi)
  40136d:	8b 42 0c             	mov    0xc(%edx),%eax
  401370:	8b ce                	mov    %esi,%ecx
  401372:	ff d0                	call   *%eax
  401374:	8b 16                	mov    (%esi),%edx
  401376:	89 46 04             	mov    %eax,0x4(%esi)
  401379:	8b 42 10             	mov    0x10(%edx),%eax
  40137c:	8b ce                	mov    %esi,%ecx
  40137e:	ff d0                	call   *%eax
  401380:	8b 16                	mov    (%esi),%edx
  401382:	89 46 04             	mov    %eax,0x4(%esi)
  401385:	8b 42 14             	mov    0x14(%edx),%eax
  401388:	8b ce                	mov    %esi,%ecx
  40138a:	ff d0                	call   *%eax
  40138c:	8b 16                	mov    (%esi),%edx
  40138e:	89 46 04             	mov    %eax,0x4(%esi)
  401391:	8b 42 18             	mov    0x18(%edx),%eax
  401394:	8b ce                	mov    %esi,%ecx
  401396:	ff d0                	call   *%eax
  401398:	8b 16                	mov    (%esi),%edx
  40139a:	89 46 04             	mov    %eax,0x4(%esi)
  40139d:	8b 42 1c             	mov    0x1c(%edx),%eax
  4013a0:	8b ce                	mov    %esi,%ecx
  4013a2:	ff d0                	call   *%eax
  4013a4:	8b 16                	mov    (%esi),%edx
  4013a6:	89 46 04             	mov    %eax,0x4(%esi)
  4013a9:	8b 42 20             	mov    0x20(%edx),%eax
  4013ac:	8b ce                	mov    %esi,%ecx
  4013ae:	ff d0                	call   *%eax
  4013b0:	8b 16                	mov    (%esi),%edx
  4013b2:	89 46 04             	mov    %eax,0x4(%esi)
  4013b5:	8b 42 24             	mov    0x24(%edx),%eax
  4013b8:	8b ce                	mov    %esi,%ecx
  4013ba:	ff d0                	call   *%eax
  4013bc:	8b 16                	mov    (%esi),%edx
  4013be:	89 46 04             	mov    %eax,0x4(%esi)
  4013c1:	8b 42 28             	mov    0x28(%edx),%eax
  4013c4:	8b ce                	mov    %esi,%ecx
  4013c6:	ff d0                	call   *%eax
  4013c8:	8b 16                	mov    (%esi),%edx
  4013ca:	89 46 04             	mov    %eax,0x4(%esi)
  4013cd:	8b 42 2c             	mov    0x2c(%edx),%eax
  4013d0:	8b ce                	mov    %esi,%ecx
  4013d2:	ff d0                	call   *%eax
  4013d4:	8b 16                	mov    (%esi),%edx
  4013d6:	89 46 04             	mov    %eax,0x4(%esi)
  4013d9:	8b 42 30             	mov    0x30(%edx),%eax
  4013dc:	8b ce                	mov    %esi,%ecx
  4013de:	ff d0                	call   *%eax
  4013e0:	8b 16                	mov    (%esi),%edx
  4013e2:	89 46 04             	mov    %eax,0x4(%esi)
  4013e5:	8b 42 34             	mov    0x34(%edx),%eax
  4013e8:	8b ce                	mov    %esi,%ecx
  4013ea:	ff d0                	call   *%eax
  4013ec:	8b 16                	mov    (%esi),%edx
  4013ee:	89 46 04             	mov    %eax,0x4(%esi)
  4013f1:	8b 42 38             	mov    0x38(%edx),%eax
  4013f4:	8b ce                	mov    %esi,%ecx
  4013f6:	ff d0                	call   *%eax
  4013f8:	8b 16                	mov    (%esi),%edx
  4013fa:	89 46 04             	mov    %eax,0x4(%esi)
  4013fd:	8b 42 3c             	mov    0x3c(%edx),%eax
  401400:	8b ce                	mov    %esi,%ecx
  401402:	ff d0                	call   *%eax
  401404:	8b 16                	mov    (%esi),%edx
  401406:	89 46 04             	mov    %eax,0x4(%esi)
  401409:	8b 42 40             	mov    0x40(%edx),%eax
  40140c:	8b ce                	mov    %esi,%ecx
  40140e:	ff d0                	call   *%eax
  401410:	8b 16                	mov    (%esi),%edx
  401412:	89 46 04             	mov    %eax,0x4(%esi)
  401415:	8b 42 44             	mov    0x44(%edx),%eax
  401418:	8b ce                	mov    %esi,%ecx
  40141a:	ff d0                	call   *%eax
  40141c:	8b 16                	mov    (%esi),%edx
  40141e:	89 46 04             	mov    %eax,0x4(%esi)
  401421:	8b 42 48             	mov    0x48(%edx),%eax
  401424:	8b ce                	mov    %esi,%ecx
  401426:	ff d0                	call   *%eax
  401428:	8b 16                	mov    (%esi),%edx
  40142a:	89 46 04             	mov    %eax,0x4(%esi)
  40142d:	8b 42 4c             	mov    0x4c(%edx),%eax
  401430:	8b ce                	mov    %esi,%ecx
  401432:	ff d0                	call   *%eax
  401434:	8b 16                	mov    (%esi),%edx
  401436:	89 46 04             	mov    %eax,0x4(%esi)
  401439:	8b 02                	mov    (%edx),%eax
  40143b:	8b ce                	mov    %esi,%ecx
  40143d:	ff d0                	call   *%eax
  40143f:	8b 16                	mov    (%esi),%edx
  401441:	89 46 04             	mov    %eax,0x4(%esi)
  401444:	8b 42 04             	mov    0x4(%edx),%eax
  401447:	8b ce                	mov    %esi,%ecx
  401449:	ff d0                	call   *%eax
  40144b:	89 46 04             	mov    %eax,0x4(%esi)
  40144e:	8b 16                	mov    (%esi),%edx
  401450:	8b 42 08             	mov    0x8(%edx),%eax
  401453:	8b ce                	mov    %esi,%ecx
  401455:	ff d0                	call   *%eax
  401457:	8b 16                	mov    (%esi),%edx
  401459:	89 46 04             	mov    %eax,0x4(%esi)
  40145c:	8b 42 0c             	mov    0xc(%edx),%eax
  40145f:	8b ce                	mov    %esi,%ecx
  401461:	ff d0                	call   *%eax
  401463:	8b 16                	mov    (%esi),%edx
  401465:	89 46 04             	mov    %eax,0x4(%esi)
  401468:	8b 42 10             	mov    0x10(%edx),%eax
  40146b:	8b ce                	mov    %esi,%ecx
  40146d:	ff d0                	call   *%eax
  40146f:	8b 16                	mov    (%esi),%edx
  401471:	89 46 04             	mov    %eax,0x4(%esi)
  401474:	8b 42 14             	mov    0x14(%edx),%eax
  401477:	8b ce                	mov    %esi,%ecx
  401479:	ff d0                	call   *%eax
  40147b:	8b 16                	mov    (%esi),%edx
  40147d:	89 46 04             	mov    %eax,0x4(%esi)
  401480:	8b 42 18             	mov    0x18(%edx),%eax
  401483:	8b ce                	mov    %esi,%ecx
  401485:	ff d0                	call   *%eax
  401487:	8b 16                	mov    (%esi),%edx
  401489:	89 46 04             	mov    %eax,0x4(%esi)
  40148c:	8b 42 1c             	mov    0x1c(%edx),%eax
  40148f:	8b ce                	mov    %esi,%ecx
  401491:	ff d0                	call   *%eax
  401493:	8b 16                	mov    (%esi),%edx
  401495:	89 46 04             	mov    %eax,0x4(%esi)
  401498:	8b 42 20             	mov    0x20(%edx),%eax
  40149b:	8b ce                	mov    %esi,%ecx
  40149d:	ff d0                	call   *%eax
  40149f:	8b 16                	mov    (%esi),%edx
  4014a1:	89 46 04             	mov    %eax,0x4(%esi)
  4014a4:	8b 42 24             	mov    0x24(%edx),%eax
  4014a7:	8b ce                	mov    %esi,%ecx
  4014a9:	ff d0                	call   *%eax
  4014ab:	8b 16                	mov    (%esi),%edx
  4014ad:	89 46 04             	mov    %eax,0x4(%esi)
  4014b0:	8b 42 28             	mov    0x28(%edx),%eax
  4014b3:	8b ce                	mov    %esi,%ecx
  4014b5:	ff d0                	call   *%eax
  4014b7:	8b 16                	mov    (%esi),%edx
  4014b9:	89 46 04             	mov    %eax,0x4(%esi)
  4014bc:	8b 42 2c             	mov    0x2c(%edx),%eax
  4014bf:	8b ce                	mov    %esi,%ecx
  4014c1:	ff d0                	call   *%eax
  4014c3:	8b 16                	mov    (%esi),%edx
  4014c5:	89 46 04             	mov    %eax,0x4(%esi)
  4014c8:	8b 42 30             	mov    0x30(%edx),%eax
  4014cb:	8b ce                	mov    %esi,%ecx
  4014cd:	ff d0                	call   *%eax
  4014cf:	8b 16                	mov    (%esi),%edx
  4014d1:	89 46 04             	mov    %eax,0x4(%esi)
  4014d4:	8b 42 34             	mov    0x34(%edx),%eax
  4014d7:	8b ce                	mov    %esi,%ecx
  4014d9:	ff d0                	call   *%eax
  4014db:	8b 16                	mov    (%esi),%edx
  4014dd:	89 46 04             	mov    %eax,0x4(%esi)
  4014e0:	8b 42 38             	mov    0x38(%edx),%eax
  4014e3:	8b ce                	mov    %esi,%ecx
  4014e5:	ff d0                	call   *%eax
  4014e7:	8b 16                	mov    (%esi),%edx
  4014e9:	89 46 04             	mov    %eax,0x4(%esi)
  4014ec:	8b 42 3c             	mov    0x3c(%edx),%eax
  4014ef:	8b ce                	mov    %esi,%ecx
  4014f1:	ff d0                	call   *%eax
  4014f3:	8b 16                	mov    (%esi),%edx
  4014f5:	89 46 04             	mov    %eax,0x4(%esi)
  4014f8:	8b 42 40             	mov    0x40(%edx),%eax
  4014fb:	8b ce                	mov    %esi,%ecx
  4014fd:	ff d0                	call   *%eax
  4014ff:	8b 16                	mov    (%esi),%edx
  401501:	89 46 04             	mov    %eax,0x4(%esi)
  401504:	8b 42 44             	mov    0x44(%edx),%eax
  401507:	8b ce                	mov    %esi,%ecx
  401509:	ff d0                	call   *%eax
  40150b:	8b 16                	mov    (%esi),%edx
  40150d:	89 46 04             	mov    %eax,0x4(%esi)
  401510:	8b 42 48             	mov    0x48(%edx),%eax
  401513:	8b ce                	mov    %esi,%ecx
  401515:	ff d0                	call   *%eax
  401517:	8b 16                	mov    (%esi),%edx
  401519:	89 46 04             	mov    %eax,0x4(%esi)
  40151c:	8b 42 4c             	mov    0x4c(%edx),%eax
  40151f:	8b ce                	mov    %esi,%ecx
  401521:	ff d0                	call   *%eax
  401523:	8b 16                	mov    (%esi),%edx
  401525:	89 46 04             	mov    %eax,0x4(%esi)
  401528:	8b 02                	mov    (%edx),%eax
  40152a:	8b ce                	mov    %esi,%ecx
  40152c:	ff d0                	call   *%eax
  40152e:	8b 16                	mov    (%esi),%edx
  401530:	89 46 04             	mov    %eax,0x4(%esi)
  401533:	8b 42 04             	mov    0x4(%edx),%eax
  401536:	8b ce                	mov    %esi,%ecx
  401538:	ff d0                	call   *%eax
  40153a:	8b 16                	mov    (%esi),%edx
  40153c:	89 46 04             	mov    %eax,0x4(%esi)
  40153f:	8b 42 08             	mov    0x8(%edx),%eax
  401542:	8b ce                	mov    %esi,%ecx
  401544:	ff d0                	call   *%eax
  401546:	8b 16                	mov    (%esi),%edx
  401548:	89 46 04             	mov    %eax,0x4(%esi)
  40154b:	8b 42 0c             	mov    0xc(%edx),%eax
  40154e:	8b ce                	mov    %esi,%ecx
  401550:	ff d0                	call   *%eax
  401552:	8b 16                	mov    (%esi),%edx
  401554:	89 46 04             	mov    %eax,0x4(%esi)
  401557:	8b 42 10             	mov    0x10(%edx),%eax
  40155a:	8b ce                	mov    %esi,%ecx
  40155c:	ff d0                	call   *%eax
  40155e:	8b 16                	mov    (%esi),%edx
  401560:	89 46 04             	mov    %eax,0x4(%esi)
  401563:	8b 42 14             	mov    0x14(%edx),%eax
  401566:	8b ce                	mov    %esi,%ecx
  401568:	ff d0                	call   *%eax
  40156a:	8b 16                	mov    (%esi),%edx
  40156c:	89 46 04             	mov    %eax,0x4(%esi)
  40156f:	8b 42 18             	mov    0x18(%edx),%eax
  401572:	8b ce                	mov    %esi,%ecx
  401574:	ff d0                	call   *%eax
  401576:	8b 16                	mov    (%esi),%edx
  401578:	89 46 04             	mov    %eax,0x4(%esi)
  40157b:	8b 42 1c             	mov    0x1c(%edx),%eax
  40157e:	8b ce                	mov    %esi,%ecx
  401580:	ff d0                	call   *%eax
  401582:	8b 16                	mov    (%esi),%edx
  401584:	89 46 04             	mov    %eax,0x4(%esi)
  401587:	8b 42 20             	mov    0x20(%edx),%eax
  40158a:	8b ce                	mov    %esi,%ecx
  40158c:	ff d0                	call   *%eax
  40158e:	8b 16                	mov    (%esi),%edx
  401590:	89 46 04             	mov    %eax,0x4(%esi)
  401593:	8b 42 24             	mov    0x24(%edx),%eax
  401596:	8b ce                	mov    %esi,%ecx
  401598:	ff d0                	call   *%eax
  40159a:	8b 16                	mov    (%esi),%edx
  40159c:	89 46 04             	mov    %eax,0x4(%esi)
  40159f:	8b 42 28             	mov    0x28(%edx),%eax
  4015a2:	8b ce                	mov    %esi,%ecx
  4015a4:	ff d0                	call   *%eax
  4015a6:	8b 16                	mov    (%esi),%edx
  4015a8:	89 46 04             	mov    %eax,0x4(%esi)
  4015ab:	8b 42 2c             	mov    0x2c(%edx),%eax
  4015ae:	8b ce                	mov    %esi,%ecx
  4015b0:	ff d0                	call   *%eax
  4015b2:	8b 16                	mov    (%esi),%edx
  4015b4:	89 46 04             	mov    %eax,0x4(%esi)
  4015b7:	8b 42 30             	mov    0x30(%edx),%eax
  4015ba:	8b ce                	mov    %esi,%ecx
  4015bc:	ff d0                	call   *%eax
  4015be:	8b 16                	mov    (%esi),%edx
  4015c0:	89 46 04             	mov    %eax,0x4(%esi)
  4015c3:	8b 42 34             	mov    0x34(%edx),%eax
  4015c6:	8b ce                	mov    %esi,%ecx
  4015c8:	ff d0                	call   *%eax
  4015ca:	8b 16                	mov    (%esi),%edx
  4015cc:	89 46 04             	mov    %eax,0x4(%esi)
  4015cf:	8b ce                	mov    %esi,%ecx
  4015d1:	8b 42 38             	mov    0x38(%edx),%eax
  4015d4:	ff d0                	call   *%eax
  4015d6:	8b 16                	mov    (%esi),%edx
  4015d8:	89 46 04             	mov    %eax,0x4(%esi)
  4015db:	8b 42 3c             	mov    0x3c(%edx),%eax
  4015de:	8b ce                	mov    %esi,%ecx
  4015e0:	ff d0                	call   *%eax
  4015e2:	8b 16                	mov    (%esi),%edx
  4015e4:	89 46 04             	mov    %eax,0x4(%esi)
  4015e7:	8b 42 40             	mov    0x40(%edx),%eax
  4015ea:	8b ce                	mov    %esi,%ecx
  4015ec:	ff d0                	call   *%eax
  4015ee:	8b 16                	mov    (%esi),%edx
  4015f0:	89 46 04             	mov    %eax,0x4(%esi)
  4015f3:	8b 42 44             	mov    0x44(%edx),%eax
  4015f6:	8b ce                	mov    %esi,%ecx
  4015f8:	ff d0                	call   *%eax
  4015fa:	8b 16                	mov    (%esi),%edx
  4015fc:	89 46 04             	mov    %eax,0x4(%esi)
  4015ff:	8b 42 48             	mov    0x48(%edx),%eax
  401602:	8b ce                	mov    %esi,%ecx
  401604:	ff d0                	call   *%eax
  401606:	8b 16                	mov    (%esi),%edx
  401608:	89 46 04             	mov    %eax,0x4(%esi)
  40160b:	8b 42 4c             	mov    0x4c(%edx),%eax
  40160e:	8b ce                	mov    %esi,%ecx
  401610:	ff d0                	call   *%eax
  401612:	8b 16                	mov    (%esi),%edx
  401614:	89 46 04             	mov    %eax,0x4(%esi)
  401617:	8b 02                	mov    (%edx),%eax
  401619:	8b ce                	mov    %esi,%ecx
  40161b:	ff d0                	call   *%eax
  40161d:	8b 16                	mov    (%esi),%edx
  40161f:	89 46 04             	mov    %eax,0x4(%esi)
  401622:	8b 42 04             	mov    0x4(%edx),%eax
  401625:	8b ce                	mov    %esi,%ecx
  401627:	ff d0                	call   *%eax
  401629:	8b 16                	mov    (%esi),%edx
  40162b:	89 46 04             	mov    %eax,0x4(%esi)
  40162e:	8b 42 08             	mov    0x8(%edx),%eax
  401631:	8b ce                	mov    %esi,%ecx
  401633:	ff d0                	call   *%eax
  401635:	8b 16                	mov    (%esi),%edx
  401637:	89 46 04             	mov    %eax,0x4(%esi)
  40163a:	8b 42 0c             	mov    0xc(%edx),%eax
  40163d:	8b ce                	mov    %esi,%ecx
  40163f:	ff d0                	call   *%eax
  401641:	8b 16                	mov    (%esi),%edx
  401643:	89 46 04             	mov    %eax,0x4(%esi)
  401646:	8b 42 10             	mov    0x10(%edx),%eax
  401649:	8b ce                	mov    %esi,%ecx
  40164b:	ff d0                	call   *%eax
  40164d:	8b 16                	mov    (%esi),%edx
  40164f:	89 46 04             	mov    %eax,0x4(%esi)
  401652:	8b 42 14             	mov    0x14(%edx),%eax
  401655:	8b ce                	mov    %esi,%ecx
  401657:	ff d0                	call   *%eax
  401659:	8b 16                	mov    (%esi),%edx
  40165b:	89 46 04             	mov    %eax,0x4(%esi)
  40165e:	8b 42 18             	mov    0x18(%edx),%eax
  401661:	8b ce                	mov    %esi,%ecx
  401663:	ff d0                	call   *%eax
  401665:	8b 16                	mov    (%esi),%edx
  401667:	89 46 04             	mov    %eax,0x4(%esi)
  40166a:	8b 42 1c             	mov    0x1c(%edx),%eax
  40166d:	8b ce                	mov    %esi,%ecx
  40166f:	ff d0                	call   *%eax
  401671:	8b 16                	mov    (%esi),%edx
  401673:	89 46 04             	mov    %eax,0x4(%esi)
  401676:	8b 42 20             	mov    0x20(%edx),%eax
  401679:	8b ce                	mov    %esi,%ecx
  40167b:	ff d0                	call   *%eax
  40167d:	8b 16                	mov    (%esi),%edx
  40167f:	89 46 04             	mov    %eax,0x4(%esi)
  401682:	8b 42 24             	mov    0x24(%edx),%eax
  401685:	8b ce                	mov    %esi,%ecx
  401687:	ff d0                	call   *%eax
  401689:	8b 16                	mov    (%esi),%edx
  40168b:	89 46 04             	mov    %eax,0x4(%esi)
  40168e:	8b 42 28             	mov    0x28(%edx),%eax
  401691:	8b ce                	mov    %esi,%ecx
  401693:	ff d0                	call   *%eax
  401695:	8b 16                	mov    (%esi),%edx
  401697:	89 46 04             	mov    %eax,0x4(%esi)
  40169a:	8b 42 2c             	mov    0x2c(%edx),%eax
  40169d:	8b ce                	mov    %esi,%ecx
  40169f:	ff d0                	call   *%eax
  4016a1:	8b 16                	mov    (%esi),%edx
  4016a3:	89 46 04             	mov    %eax,0x4(%esi)
  4016a6:	8b 42 30             	mov    0x30(%edx),%eax
  4016a9:	8b ce                	mov    %esi,%ecx
  4016ab:	ff d0                	call   *%eax
  4016ad:	8b 16                	mov    (%esi),%edx
  4016af:	89 46 04             	mov    %eax,0x4(%esi)
  4016b2:	8b 42 34             	mov    0x34(%edx),%eax
  4016b5:	8b ce                	mov    %esi,%ecx
  4016b7:	ff d0                	call   *%eax
  4016b9:	8b 16                	mov    (%esi),%edx
  4016bb:	89 46 04             	mov    %eax,0x4(%esi)
  4016be:	8b 42 38             	mov    0x38(%edx),%eax
  4016c1:	8b ce                	mov    %esi,%ecx
  4016c3:	ff d0                	call   *%eax
  4016c5:	8b 16                	mov    (%esi),%edx
  4016c7:	89 46 04             	mov    %eax,0x4(%esi)
  4016ca:	8b 42 3c             	mov    0x3c(%edx),%eax
  4016cd:	8b ce                	mov    %esi,%ecx
  4016cf:	ff d0                	call   *%eax
  4016d1:	8b 16                	mov    (%esi),%edx
  4016d3:	89 46 04             	mov    %eax,0x4(%esi)
  4016d6:	8b 42 40             	mov    0x40(%edx),%eax
  4016d9:	8b ce                	mov    %esi,%ecx
  4016db:	ff d0                	call   *%eax
  4016dd:	8b 16                	mov    (%esi),%edx
  4016df:	89 46 04             	mov    %eax,0x4(%esi)
  4016e2:	8b 42 44             	mov    0x44(%edx),%eax
  4016e5:	8b ce                	mov    %esi,%ecx
  4016e7:	ff d0                	call   *%eax
  4016e9:	8b 16                	mov    (%esi),%edx
  4016eb:	89 46 04             	mov    %eax,0x4(%esi)
  4016ee:	8b 42 48             	mov    0x48(%edx),%eax
  4016f1:	8b ce                	mov    %esi,%ecx
  4016f3:	ff d0                	call   *%eax
  4016f5:	8b 16                	mov    (%esi),%edx
  4016f7:	89 46 04             	mov    %eax,0x4(%esi)
  4016fa:	8b 42 4c             	mov    0x4c(%edx),%eax
  4016fd:	8b ce                	mov    %esi,%ecx
  4016ff:	ff d0                	call   *%eax
  401701:	8b 16                	mov    (%esi),%edx
  401703:	89 46 04             	mov    %eax,0x4(%esi)
  401706:	8b 02                	mov    (%edx),%eax
  401708:	8b ce                	mov    %esi,%ecx
  40170a:	ff d0                	call   *%eax
  40170c:	8b 16                	mov    (%esi),%edx
  40170e:	89 46 04             	mov    %eax,0x4(%esi)
  401711:	8b 42 04             	mov    0x4(%edx),%eax
  401714:	8b ce                	mov    %esi,%ecx
  401716:	ff d0                	call   *%eax
  401718:	8b 16                	mov    (%esi),%edx
  40171a:	89 46 04             	mov    %eax,0x4(%esi)
  40171d:	8b 42 08             	mov    0x8(%edx),%eax
  401720:	8b ce                	mov    %esi,%ecx
  401722:	ff d0                	call   *%eax
  401724:	8b 16                	mov    (%esi),%edx
  401726:	89 46 04             	mov    %eax,0x4(%esi)
  401729:	8b 42 0c             	mov    0xc(%edx),%eax
  40172c:	8b ce                	mov    %esi,%ecx
  40172e:	ff d0                	call   *%eax
  401730:	8b 16                	mov    (%esi),%edx
  401732:	89 46 04             	mov    %eax,0x4(%esi)
  401735:	8b 42 10             	mov    0x10(%edx),%eax
  401738:	8b ce                	mov    %esi,%ecx
  40173a:	ff d0                	call   *%eax
  40173c:	8b 16                	mov    (%esi),%edx
  40173e:	89 46 04             	mov    %eax,0x4(%esi)
  401741:	8b 42 14             	mov    0x14(%edx),%eax
  401744:	8b ce                	mov    %esi,%ecx
  401746:	ff d0                	call   *%eax
  401748:	8b 16                	mov    (%esi),%edx
  40174a:	89 46 04             	mov    %eax,0x4(%esi)
  40174d:	8b 42 18             	mov    0x18(%edx),%eax
  401750:	8b ce                	mov    %esi,%ecx
  401752:	ff d0                	call   *%eax
  401754:	8b 16                	mov    (%esi),%edx
  401756:	89 46 04             	mov    %eax,0x4(%esi)
  401759:	8b 42 1c             	mov    0x1c(%edx),%eax
  40175c:	8b ce                	mov    %esi,%ecx
  40175e:	ff d0                	call   *%eax
  401760:	8b 16                	mov    (%esi),%edx
  401762:	89 46 04             	mov    %eax,0x4(%esi)
  401765:	8b 42 20             	mov    0x20(%edx),%eax
  401768:	8b ce                	mov    %esi,%ecx
  40176a:	ff d0                	call   *%eax
  40176c:	8b 16                	mov    (%esi),%edx
  40176e:	89 46 04             	mov    %eax,0x4(%esi)
  401771:	8b 42 24             	mov    0x24(%edx),%eax
  401774:	8b ce                	mov    %esi,%ecx
  401776:	ff d0                	call   *%eax
  401778:	8b 16                	mov    (%esi),%edx
  40177a:	89 46 04             	mov    %eax,0x4(%esi)
  40177d:	8b 42 28             	mov    0x28(%edx),%eax
  401780:	8b ce                	mov    %esi,%ecx
  401782:	ff d0                	call   *%eax
  401784:	8b 16                	mov    (%esi),%edx
  401786:	89 46 04             	mov    %eax,0x4(%esi)
  401789:	8b 42 2c             	mov    0x2c(%edx),%eax
  40178c:	8b ce                	mov    %esi,%ecx
  40178e:	ff d0                	call   *%eax
  401790:	8b 16                	mov    (%esi),%edx
  401792:	89 46 04             	mov    %eax,0x4(%esi)
  401795:	8b 42 30             	mov    0x30(%edx),%eax
  401798:	8b ce                	mov    %esi,%ecx
  40179a:	ff d0                	call   *%eax
  40179c:	8b 16                	mov    (%esi),%edx
  40179e:	89 46 04             	mov    %eax,0x4(%esi)
  4017a1:	8b 42 34             	mov    0x34(%edx),%eax
  4017a4:	8b ce                	mov    %esi,%ecx
  4017a6:	ff d0                	call   *%eax
  4017a8:	8b 16                	mov    (%esi),%edx
  4017aa:	89 46 04             	mov    %eax,0x4(%esi)
  4017ad:	8b 42 38             	mov    0x38(%edx),%eax
  4017b0:	8b ce                	mov    %esi,%ecx
  4017b2:	ff d0                	call   *%eax
  4017b4:	8b 16                	mov    (%esi),%edx
  4017b6:	89 46 04             	mov    %eax,0x4(%esi)
  4017b9:	8b 42 3c             	mov    0x3c(%edx),%eax
  4017bc:	8b ce                	mov    %esi,%ecx
  4017be:	ff d0                	call   *%eax
  4017c0:	8b 16                	mov    (%esi),%edx
  4017c2:	89 46 04             	mov    %eax,0x4(%esi)
  4017c5:	8b 42 40             	mov    0x40(%edx),%eax
  4017c8:	8b ce                	mov    %esi,%ecx
  4017ca:	ff d0                	call   *%eax
  4017cc:	8b 16                	mov    (%esi),%edx
  4017ce:	89 46 04             	mov    %eax,0x4(%esi)
  4017d1:	8b 42 44             	mov    0x44(%edx),%eax
  4017d4:	8b ce                	mov    %esi,%ecx
  4017d6:	ff d0                	call   *%eax
  4017d8:	8b 16                	mov    (%esi),%edx
  4017da:	89 46 04             	mov    %eax,0x4(%esi)
  4017dd:	8b 42 48             	mov    0x48(%edx),%eax
  4017e0:	8b ce                	mov    %esi,%ecx
  4017e2:	ff d0                	call   *%eax
  4017e4:	8b 16                	mov    (%esi),%edx
  4017e6:	89 46 04             	mov    %eax,0x4(%esi)
  4017e9:	8b 42 4c             	mov    0x4c(%edx),%eax
  4017ec:	8b ce                	mov    %esi,%ecx
  4017ee:	ff d0                	call   *%eax
  4017f0:	8b 16                	mov    (%esi),%edx
  4017f2:	89 46 04             	mov    %eax,0x4(%esi)
  4017f5:	8b 02                	mov    (%edx),%eax
  4017f7:	8b ce                	mov    %esi,%ecx
  4017f9:	ff d0                	call   *%eax
  4017fb:	8b 16                	mov    (%esi),%edx
  4017fd:	89 46 04             	mov    %eax,0x4(%esi)
  401800:	8b 42 04             	mov    0x4(%edx),%eax
  401803:	8b ce                	mov    %esi,%ecx
  401805:	ff d0                	call   *%eax
  401807:	8b 16                	mov    (%esi),%edx
  401809:	89 46 04             	mov    %eax,0x4(%esi)
  40180c:	8b 42 08             	mov    0x8(%edx),%eax
  40180f:	8b ce                	mov    %esi,%ecx
  401811:	ff d0                	call   *%eax
  401813:	89 46 04             	mov    %eax,0x4(%esi)
  401816:	8b 16                	mov    (%esi),%edx
  401818:	8b 42 0c             	mov    0xc(%edx),%eax
  40181b:	8b ce                	mov    %esi,%ecx
  40181d:	ff d0                	call   *%eax
  40181f:	8b 16                	mov    (%esi),%edx
  401821:	89 46 04             	mov    %eax,0x4(%esi)
  401824:	8b 42 10             	mov    0x10(%edx),%eax
  401827:	8b ce                	mov    %esi,%ecx
  401829:	ff d0                	call   *%eax
  40182b:	8b 16                	mov    (%esi),%edx
  40182d:	89 46 04             	mov    %eax,0x4(%esi)
  401830:	8b 42 14             	mov    0x14(%edx),%eax
  401833:	8b ce                	mov    %esi,%ecx
  401835:	ff d0                	call   *%eax
  401837:	8b 16                	mov    (%esi),%edx
  401839:	89 46 04             	mov    %eax,0x4(%esi)
  40183c:	8b 42 18             	mov    0x18(%edx),%eax
  40183f:	8b ce                	mov    %esi,%ecx
  401841:	ff d0                	call   *%eax
  401843:	8b 16                	mov    (%esi),%edx
  401845:	89 46 04             	mov    %eax,0x4(%esi)
  401848:	8b 42 1c             	mov    0x1c(%edx),%eax
  40184b:	8b ce                	mov    %esi,%ecx
  40184d:	ff d0                	call   *%eax
  40184f:	8b 16                	mov    (%esi),%edx
  401851:	89 46 04             	mov    %eax,0x4(%esi)
  401854:	8b 42 20             	mov    0x20(%edx),%eax
  401857:	8b ce                	mov    %esi,%ecx
  401859:	ff d0                	call   *%eax
  40185b:	8b 16                	mov    (%esi),%edx
  40185d:	89 46 04             	mov    %eax,0x4(%esi)
  401860:	8b 42 24             	mov    0x24(%edx),%eax
  401863:	8b ce                	mov    %esi,%ecx
  401865:	ff d0                	call   *%eax
  401867:	8b 16                	mov    (%esi),%edx
  401869:	89 46 04             	mov    %eax,0x4(%esi)
  40186c:	8b 42 28             	mov    0x28(%edx),%eax
  40186f:	8b ce                	mov    %esi,%ecx
  401871:	ff d0                	call   *%eax
  401873:	8b 16                	mov    (%esi),%edx
  401875:	89 46 04             	mov    %eax,0x4(%esi)
  401878:	8b 42 2c             	mov    0x2c(%edx),%eax
  40187b:	8b ce                	mov    %esi,%ecx
  40187d:	ff d0                	call   *%eax
  40187f:	8b 16                	mov    (%esi),%edx
  401881:	89 46 04             	mov    %eax,0x4(%esi)
  401884:	8b 42 30             	mov    0x30(%edx),%eax
  401887:	8b ce                	mov    %esi,%ecx
  401889:	ff d0                	call   *%eax
  40188b:	8b 16                	mov    (%esi),%edx
  40188d:	89 46 04             	mov    %eax,0x4(%esi)
  401890:	8b 42 34             	mov    0x34(%edx),%eax
  401893:	8b ce                	mov    %esi,%ecx
  401895:	ff d0                	call   *%eax
  401897:	8b 16                	mov    (%esi),%edx
  401899:	89 46 04             	mov    %eax,0x4(%esi)
  40189c:	8b 42 38             	mov    0x38(%edx),%eax
  40189f:	8b ce                	mov    %esi,%ecx
  4018a1:	ff d0                	call   *%eax
  4018a3:	8b 16                	mov    (%esi),%edx
  4018a5:	89 46 04             	mov    %eax,0x4(%esi)
  4018a8:	8b 42 3c             	mov    0x3c(%edx),%eax
  4018ab:	8b ce                	mov    %esi,%ecx
  4018ad:	ff d0                	call   *%eax
  4018af:	8b 16                	mov    (%esi),%edx
  4018b1:	89 46 04             	mov    %eax,0x4(%esi)
  4018b4:	8b 42 40             	mov    0x40(%edx),%eax
  4018b7:	8b ce                	mov    %esi,%ecx
  4018b9:	ff d0                	call   *%eax
  4018bb:	8b 16                	mov    (%esi),%edx
  4018bd:	89 46 04             	mov    %eax,0x4(%esi)
  4018c0:	8b 42 44             	mov    0x44(%edx),%eax
  4018c3:	8b ce                	mov    %esi,%ecx
  4018c5:	ff d0                	call   *%eax
  4018c7:	8b 16                	mov    (%esi),%edx
  4018c9:	89 46 04             	mov    %eax,0x4(%esi)
  4018cc:	8b 42 48             	mov    0x48(%edx),%eax
  4018cf:	8b ce                	mov    %esi,%ecx
  4018d1:	ff d0                	call   *%eax
  4018d3:	8b 16                	mov    (%esi),%edx
  4018d5:	89 46 04             	mov    %eax,0x4(%esi)
  4018d8:	8b 42 4c             	mov    0x4c(%edx),%eax
  4018db:	8b ce                	mov    %esi,%ecx
  4018dd:	ff d0                	call   *%eax
  4018df:	8b 16                	mov    (%esi),%edx
  4018e1:	89 46 04             	mov    %eax,0x4(%esi)
  4018e4:	8b 02                	mov    (%edx),%eax
  4018e6:	8b ce                	mov    %esi,%ecx
  4018e8:	ff d0                	call   *%eax
  4018ea:	8b 16                	mov    (%esi),%edx
  4018ec:	89 46 04             	mov    %eax,0x4(%esi)
  4018ef:	8b 42 04             	mov    0x4(%edx),%eax
  4018f2:	8b ce                	mov    %esi,%ecx
  4018f4:	ff d0                	call   *%eax
  4018f6:	8b 16                	mov    (%esi),%edx
  4018f8:	89 46 04             	mov    %eax,0x4(%esi)
  4018fb:	8b 42 08             	mov    0x8(%edx),%eax
  4018fe:	8b ce                	mov    %esi,%ecx
  401900:	ff d0                	call   *%eax
  401902:	8b 16                	mov    (%esi),%edx
  401904:	89 46 04             	mov    %eax,0x4(%esi)
  401907:	8b 42 0c             	mov    0xc(%edx),%eax
  40190a:	8b ce                	mov    %esi,%ecx
  40190c:	ff d0                	call   *%eax
  40190e:	8b 16                	mov    (%esi),%edx
  401910:	89 46 04             	mov    %eax,0x4(%esi)
  401913:	8b 42 10             	mov    0x10(%edx),%eax
  401916:	8b ce                	mov    %esi,%ecx
  401918:	ff d0                	call   *%eax
  40191a:	8b 16                	mov    (%esi),%edx
  40191c:	89 46 04             	mov    %eax,0x4(%esi)
  40191f:	8b 42 14             	mov    0x14(%edx),%eax
  401922:	8b ce                	mov    %esi,%ecx
  401924:	ff d0                	call   *%eax
  401926:	8b 16                	mov    (%esi),%edx
  401928:	89 46 04             	mov    %eax,0x4(%esi)
  40192b:	8b 42 18             	mov    0x18(%edx),%eax
  40192e:	8b ce                	mov    %esi,%ecx
  401930:	ff d0                	call   *%eax
  401932:	8b 16                	mov    (%esi),%edx
  401934:	89 46 04             	mov    %eax,0x4(%esi)
  401937:	8b 42 1c             	mov    0x1c(%edx),%eax
  40193a:	8b ce                	mov    %esi,%ecx
  40193c:	ff d0                	call   *%eax
  40193e:	8b 16                	mov    (%esi),%edx
  401940:	89 46 04             	mov    %eax,0x4(%esi)
  401943:	8b 42 20             	mov    0x20(%edx),%eax
  401946:	8b ce                	mov    %esi,%ecx
  401948:	ff d0                	call   *%eax
  40194a:	8b 16                	mov    (%esi),%edx
  40194c:	89 46 04             	mov    %eax,0x4(%esi)
  40194f:	8b 42 24             	mov    0x24(%edx),%eax
  401952:	8b ce                	mov    %esi,%ecx
  401954:	ff d0                	call   *%eax
  401956:	8b 16                	mov    (%esi),%edx
  401958:	89 46 04             	mov    %eax,0x4(%esi)
  40195b:	8b 42 28             	mov    0x28(%edx),%eax
  40195e:	8b ce                	mov    %esi,%ecx
  401960:	ff d0                	call   *%eax
  401962:	8b 16                	mov    (%esi),%edx
  401964:	89 46 04             	mov    %eax,0x4(%esi)
  401967:	8b 42 2c             	mov    0x2c(%edx),%eax
  40196a:	8b ce                	mov    %esi,%ecx
  40196c:	ff d0                	call   *%eax
  40196e:	8b 16                	mov    (%esi),%edx
  401970:	89 46 04             	mov    %eax,0x4(%esi)
  401973:	8b 42 30             	mov    0x30(%edx),%eax
  401976:	8b ce                	mov    %esi,%ecx
  401978:	ff d0                	call   *%eax
  40197a:	8b 16                	mov    (%esi),%edx
  40197c:	89 46 04             	mov    %eax,0x4(%esi)
  40197f:	8b 42 34             	mov    0x34(%edx),%eax
  401982:	8b ce                	mov    %esi,%ecx
  401984:	ff d0                	call   *%eax
  401986:	8b 16                	mov    (%esi),%edx
  401988:	89 46 04             	mov    %eax,0x4(%esi)
  40198b:	8b 42 38             	mov    0x38(%edx),%eax
  40198e:	8b ce                	mov    %esi,%ecx
  401990:	ff d0                	call   *%eax
  401992:	8b 16                	mov    (%esi),%edx
  401994:	89 46 04             	mov    %eax,0x4(%esi)
  401997:	8b ce                	mov    %esi,%ecx
  401999:	8b 42 3c             	mov    0x3c(%edx),%eax
  40199c:	ff d0                	call   *%eax
  40199e:	8b 16                	mov    (%esi),%edx
  4019a0:	89 46 04             	mov    %eax,0x4(%esi)
  4019a3:	8b 42 40             	mov    0x40(%edx),%eax
  4019a6:	8b ce                	mov    %esi,%ecx
  4019a8:	ff d0                	call   *%eax
  4019aa:	8b 16                	mov    (%esi),%edx
  4019ac:	89 46 04             	mov    %eax,0x4(%esi)
  4019af:	8b 42 44             	mov    0x44(%edx),%eax
  4019b2:	8b ce                	mov    %esi,%ecx
  4019b4:	ff d0                	call   *%eax
  4019b6:	8b 16                	mov    (%esi),%edx
  4019b8:	89 46 04             	mov    %eax,0x4(%esi)
  4019bb:	8b 42 48             	mov    0x48(%edx),%eax
  4019be:	8b ce                	mov    %esi,%ecx
  4019c0:	ff d0                	call   *%eax
  4019c2:	8b 16                	mov    (%esi),%edx
  4019c4:	89 46 04             	mov    %eax,0x4(%esi)
  4019c7:	8b 42 4c             	mov    0x4c(%edx),%eax
  4019ca:	8b ce                	mov    %esi,%ecx
  4019cc:	ff d0                	call   *%eax
  4019ce:	8b 16                	mov    (%esi),%edx
  4019d0:	89 46 04             	mov    %eax,0x4(%esi)
  4019d3:	8b 02                	mov    (%edx),%eax
  4019d5:	8b ce                	mov    %esi,%ecx
  4019d7:	ff d0                	call   *%eax
  4019d9:	8b 16                	mov    (%esi),%edx
  4019db:	89 46 04             	mov    %eax,0x4(%esi)
  4019de:	8b 42 04             	mov    0x4(%edx),%eax
  4019e1:	8b ce                	mov    %esi,%ecx
  4019e3:	ff d0                	call   *%eax
  4019e5:	8b 16                	mov    (%esi),%edx
  4019e7:	89 46 04             	mov    %eax,0x4(%esi)
  4019ea:	8b 42 08             	mov    0x8(%edx),%eax
  4019ed:	8b ce                	mov    %esi,%ecx
  4019ef:	ff d0                	call   *%eax
  4019f1:	8b 16                	mov    (%esi),%edx
  4019f3:	89 46 04             	mov    %eax,0x4(%esi)
  4019f6:	8b 42 0c             	mov    0xc(%edx),%eax
  4019f9:	8b ce                	mov    %esi,%ecx
  4019fb:	ff d0                	call   *%eax
  4019fd:	8b 16                	mov    (%esi),%edx
  4019ff:	89 46 04             	mov    %eax,0x4(%esi)
  401a02:	8b 42 10             	mov    0x10(%edx),%eax
  401a05:	8b ce                	mov    %esi,%ecx
  401a07:	ff d0                	call   *%eax
  401a09:	8b 16                	mov    (%esi),%edx
  401a0b:	89 46 04             	mov    %eax,0x4(%esi)
  401a0e:	8b 42 14             	mov    0x14(%edx),%eax
  401a11:	8b ce                	mov    %esi,%ecx
  401a13:	ff d0                	call   *%eax
  401a15:	8b 16                	mov    (%esi),%edx
  401a17:	89 46 04             	mov    %eax,0x4(%esi)
  401a1a:	8b 42 18             	mov    0x18(%edx),%eax
  401a1d:	8b ce                	mov    %esi,%ecx
  401a1f:	ff d0                	call   *%eax
  401a21:	8b 16                	mov    (%esi),%edx
  401a23:	89 46 04             	mov    %eax,0x4(%esi)
  401a26:	8b 42 1c             	mov    0x1c(%edx),%eax
  401a29:	8b ce                	mov    %esi,%ecx
  401a2b:	ff d0                	call   *%eax
  401a2d:	8b 16                	mov    (%esi),%edx
  401a2f:	89 46 04             	mov    %eax,0x4(%esi)
  401a32:	8b 42 20             	mov    0x20(%edx),%eax
  401a35:	8b ce                	mov    %esi,%ecx
  401a37:	ff d0                	call   *%eax
  401a39:	8b 16                	mov    (%esi),%edx
  401a3b:	89 46 04             	mov    %eax,0x4(%esi)
  401a3e:	8b 42 24             	mov    0x24(%edx),%eax
  401a41:	8b ce                	mov    %esi,%ecx
  401a43:	ff d0                	call   *%eax
  401a45:	8b 16                	mov    (%esi),%edx
  401a47:	89 46 04             	mov    %eax,0x4(%esi)
  401a4a:	8b 42 28             	mov    0x28(%edx),%eax
  401a4d:	8b ce                	mov    %esi,%ecx
  401a4f:	ff d0                	call   *%eax
  401a51:	8b 16                	mov    (%esi),%edx
  401a53:	89 46 04             	mov    %eax,0x4(%esi)
  401a56:	8b 42 2c             	mov    0x2c(%edx),%eax
  401a59:	8b ce                	mov    %esi,%ecx
  401a5b:	ff d0                	call   *%eax
  401a5d:	8b 16                	mov    (%esi),%edx
  401a5f:	89 46 04             	mov    %eax,0x4(%esi)
  401a62:	8b 42 30             	mov    0x30(%edx),%eax
  401a65:	8b ce                	mov    %esi,%ecx
  401a67:	ff d0                	call   *%eax
  401a69:	8b 16                	mov    (%esi),%edx
  401a6b:	89 46 04             	mov    %eax,0x4(%esi)
  401a6e:	8b 42 34             	mov    0x34(%edx),%eax
  401a71:	8b ce                	mov    %esi,%ecx
  401a73:	ff d0                	call   *%eax
  401a75:	8b 16                	mov    (%esi),%edx
  401a77:	89 46 04             	mov    %eax,0x4(%esi)
  401a7a:	8b 42 38             	mov    0x38(%edx),%eax
  401a7d:	8b ce                	mov    %esi,%ecx
  401a7f:	ff d0                	call   *%eax
  401a81:	8b 16                	mov    (%esi),%edx
  401a83:	89 46 04             	mov    %eax,0x4(%esi)
  401a86:	8b 42 3c             	mov    0x3c(%edx),%eax
  401a89:	8b ce                	mov    %esi,%ecx
  401a8b:	ff d0                	call   *%eax
  401a8d:	8b 16                	mov    (%esi),%edx
  401a8f:	89 46 04             	mov    %eax,0x4(%esi)
  401a92:	8b 42 40             	mov    0x40(%edx),%eax
  401a95:	8b ce                	mov    %esi,%ecx
  401a97:	ff d0                	call   *%eax
  401a99:	8b 16                	mov    (%esi),%edx
  401a9b:	89 46 04             	mov    %eax,0x4(%esi)
  401a9e:	8b 42 44             	mov    0x44(%edx),%eax
  401aa1:	8b ce                	mov    %esi,%ecx
  401aa3:	ff d0                	call   *%eax
  401aa5:	8b 16                	mov    (%esi),%edx
  401aa7:	89 46 04             	mov    %eax,0x4(%esi)
  401aaa:	8b 42 48             	mov    0x48(%edx),%eax
  401aad:	8b ce                	mov    %esi,%ecx
  401aaf:	ff d0                	call   *%eax
  401ab1:	8b 16                	mov    (%esi),%edx
  401ab3:	89 46 04             	mov    %eax,0x4(%esi)
  401ab6:	8b 42 4c             	mov    0x4c(%edx),%eax
  401ab9:	8b ce                	mov    %esi,%ecx
  401abb:	ff d0                	call   *%eax
  401abd:	8b 16                	mov    (%esi),%edx
  401abf:	89 46 04             	mov    %eax,0x4(%esi)
  401ac2:	8b 02                	mov    (%edx),%eax
  401ac4:	8b ce                	mov    %esi,%ecx
  401ac6:	ff d0                	call   *%eax
  401ac8:	8b 16                	mov    (%esi),%edx
  401aca:	89 46 04             	mov    %eax,0x4(%esi)
  401acd:	8b 42 04             	mov    0x4(%edx),%eax
  401ad0:	8b ce                	mov    %esi,%ecx
  401ad2:	ff d0                	call   *%eax
  401ad4:	8b 16                	mov    (%esi),%edx
  401ad6:	89 46 04             	mov    %eax,0x4(%esi)
  401ad9:	8b 42 08             	mov    0x8(%edx),%eax
  401adc:	8b ce                	mov    %esi,%ecx
  401ade:	ff d0                	call   *%eax
  401ae0:	8b 16                	mov    (%esi),%edx
  401ae2:	89 46 04             	mov    %eax,0x4(%esi)
  401ae5:	8b 42 0c             	mov    0xc(%edx),%eax
  401ae8:	8b ce                	mov    %esi,%ecx
  401aea:	ff d0                	call   *%eax
  401aec:	8b 16                	mov    (%esi),%edx
  401aee:	89 46 04             	mov    %eax,0x4(%esi)
  401af1:	8b 42 10             	mov    0x10(%edx),%eax
  401af4:	8b ce                	mov    %esi,%ecx
  401af6:	ff d0                	call   *%eax
  401af8:	8b 16                	mov    (%esi),%edx
  401afa:	89 46 04             	mov    %eax,0x4(%esi)
  401afd:	8b 42 14             	mov    0x14(%edx),%eax
  401b00:	8b ce                	mov    %esi,%ecx
  401b02:	ff d0                	call   *%eax
  401b04:	8b 16                	mov    (%esi),%edx
  401b06:	89 46 04             	mov    %eax,0x4(%esi)
  401b09:	8b 42 18             	mov    0x18(%edx),%eax
  401b0c:	8b ce                	mov    %esi,%ecx
  401b0e:	ff d0                	call   *%eax
  401b10:	8b 16                	mov    (%esi),%edx
  401b12:	89 46 04             	mov    %eax,0x4(%esi)
  401b15:	8b 42 1c             	mov    0x1c(%edx),%eax
  401b18:	8b ce                	mov    %esi,%ecx
  401b1a:	ff d0                	call   *%eax
  401b1c:	8b 16                	mov    (%esi),%edx
  401b1e:	89 46 04             	mov    %eax,0x4(%esi)
  401b21:	8b 42 20             	mov    0x20(%edx),%eax
  401b24:	8b ce                	mov    %esi,%ecx
  401b26:	ff d0                	call   *%eax
  401b28:	8b 16                	mov    (%esi),%edx
  401b2a:	89 46 04             	mov    %eax,0x4(%esi)
  401b2d:	8b 42 24             	mov    0x24(%edx),%eax
  401b30:	8b ce                	mov    %esi,%ecx
  401b32:	ff d0                	call   *%eax
  401b34:	8b 16                	mov    (%esi),%edx
  401b36:	89 46 04             	mov    %eax,0x4(%esi)
  401b39:	8b 42 28             	mov    0x28(%edx),%eax
  401b3c:	8b ce                	mov    %esi,%ecx
  401b3e:	ff d0                	call   *%eax
  401b40:	8b 16                	mov    (%esi),%edx
  401b42:	89 46 04             	mov    %eax,0x4(%esi)
  401b45:	8b 42 2c             	mov    0x2c(%edx),%eax
  401b48:	8b ce                	mov    %esi,%ecx
  401b4a:	ff d0                	call   *%eax
  401b4c:	8b 16                	mov    (%esi),%edx
  401b4e:	89 46 04             	mov    %eax,0x4(%esi)
  401b51:	8b 42 30             	mov    0x30(%edx),%eax
  401b54:	8b ce                	mov    %esi,%ecx
  401b56:	ff d0                	call   *%eax
  401b58:	8b 16                	mov    (%esi),%edx
  401b5a:	89 46 04             	mov    %eax,0x4(%esi)
  401b5d:	8b 42 34             	mov    0x34(%edx),%eax
  401b60:	8b ce                	mov    %esi,%ecx
  401b62:	ff d0                	call   *%eax
  401b64:	8b 16                	mov    (%esi),%edx
  401b66:	89 46 04             	mov    %eax,0x4(%esi)
  401b69:	8b 42 38             	mov    0x38(%edx),%eax
  401b6c:	8b ce                	mov    %esi,%ecx
  401b6e:	ff d0                	call   *%eax
  401b70:	8b 16                	mov    (%esi),%edx
  401b72:	89 46 04             	mov    %eax,0x4(%esi)
  401b75:	8b 42 3c             	mov    0x3c(%edx),%eax
  401b78:	8b ce                	mov    %esi,%ecx
  401b7a:	ff d0                	call   *%eax
  401b7c:	8b 16                	mov    (%esi),%edx
  401b7e:	89 46 04             	mov    %eax,0x4(%esi)
  401b81:	8b 42 40             	mov    0x40(%edx),%eax
  401b84:	8b ce                	mov    %esi,%ecx
  401b86:	ff d0                	call   *%eax
  401b88:	8b 16                	mov    (%esi),%edx
  401b8a:	89 46 04             	mov    %eax,0x4(%esi)
  401b8d:	8b 42 44             	mov    0x44(%edx),%eax
  401b90:	8b ce                	mov    %esi,%ecx
  401b92:	ff d0                	call   *%eax
  401b94:	8b 16                	mov    (%esi),%edx
  401b96:	89 46 04             	mov    %eax,0x4(%esi)
  401b99:	8b 42 48             	mov    0x48(%edx),%eax
  401b9c:	8b ce                	mov    %esi,%ecx
  401b9e:	ff d0                	call   *%eax
  401ba0:	8b 16                	mov    (%esi),%edx
  401ba2:	89 46 04             	mov    %eax,0x4(%esi)
  401ba5:	8b 42 4c             	mov    0x4c(%edx),%eax
  401ba8:	8b ce                	mov    %esi,%ecx
  401baa:	ff d0                	call   *%eax
  401bac:	8b 16                	mov    (%esi),%edx
  401bae:	89 46 04             	mov    %eax,0x4(%esi)
  401bb1:	8b 02                	mov    (%edx),%eax
  401bb3:	8b ce                	mov    %esi,%ecx
  401bb5:	ff d0                	call   *%eax
  401bb7:	8b 16                	mov    (%esi),%edx
  401bb9:	89 46 04             	mov    %eax,0x4(%esi)
  401bbc:	8b 42 04             	mov    0x4(%edx),%eax
  401bbf:	8b ce                	mov    %esi,%ecx
  401bc1:	ff d0                	call   *%eax
  401bc3:	8b 16                	mov    (%esi),%edx
  401bc5:	89 46 04             	mov    %eax,0x4(%esi)
  401bc8:	8b 42 08             	mov    0x8(%edx),%eax
  401bcb:	8b ce                	mov    %esi,%ecx
  401bcd:	ff d0                	call   *%eax
  401bcf:	8b 16                	mov    (%esi),%edx
  401bd1:	89 46 04             	mov    %eax,0x4(%esi)
  401bd4:	8b 42 0c             	mov    0xc(%edx),%eax
  401bd7:	8b ce                	mov    %esi,%ecx
  401bd9:	ff d0                	call   *%eax
  401bdb:	89 46 04             	mov    %eax,0x4(%esi)
  401bde:	8b 16                	mov    (%esi),%edx
  401be0:	8b 42 10             	mov    0x10(%edx),%eax
  401be3:	8b ce                	mov    %esi,%ecx
  401be5:	ff d0                	call   *%eax
  401be7:	8b 16                	mov    (%esi),%edx
  401be9:	89 46 04             	mov    %eax,0x4(%esi)
  401bec:	8b 42 14             	mov    0x14(%edx),%eax
  401bef:	8b ce                	mov    %esi,%ecx
  401bf1:	ff d0                	call   *%eax
  401bf3:	8b 16                	mov    (%esi),%edx
  401bf5:	89 46 04             	mov    %eax,0x4(%esi)
  401bf8:	8b 42 18             	mov    0x18(%edx),%eax
  401bfb:	8b ce                	mov    %esi,%ecx
  401bfd:	ff d0                	call   *%eax
  401bff:	8b 16                	mov    (%esi),%edx
  401c01:	89 46 04             	mov    %eax,0x4(%esi)
  401c04:	8b 42 1c             	mov    0x1c(%edx),%eax
  401c07:	8b ce                	mov    %esi,%ecx
  401c09:	ff d0                	call   *%eax
  401c0b:	8b 16                	mov    (%esi),%edx
  401c0d:	89 46 04             	mov    %eax,0x4(%esi)
  401c10:	8b 42 20             	mov    0x20(%edx),%eax
  401c13:	8b ce                	mov    %esi,%ecx
  401c15:	ff d0                	call   *%eax
  401c17:	8b 16                	mov    (%esi),%edx
  401c19:	89 46 04             	mov    %eax,0x4(%esi)
  401c1c:	8b 42 24             	mov    0x24(%edx),%eax
  401c1f:	8b ce                	mov    %esi,%ecx
  401c21:	ff d0                	call   *%eax
  401c23:	8b 16                	mov    (%esi),%edx
  401c25:	89 46 04             	mov    %eax,0x4(%esi)
  401c28:	8b 42 28             	mov    0x28(%edx),%eax
  401c2b:	8b ce                	mov    %esi,%ecx
  401c2d:	ff d0                	call   *%eax
  401c2f:	8b 16                	mov    (%esi),%edx
  401c31:	89 46 04             	mov    %eax,0x4(%esi)
  401c34:	8b 42 2c             	mov    0x2c(%edx),%eax
  401c37:	8b ce                	mov    %esi,%ecx
  401c39:	ff d0                	call   *%eax
  401c3b:	8b 16                	mov    (%esi),%edx
  401c3d:	89 46 04             	mov    %eax,0x4(%esi)
  401c40:	8b 42 30             	mov    0x30(%edx),%eax
  401c43:	8b ce                	mov    %esi,%ecx
  401c45:	ff d0                	call   *%eax
  401c47:	8b 16                	mov    (%esi),%edx
  401c49:	89 46 04             	mov    %eax,0x4(%esi)
  401c4c:	8b 42 34             	mov    0x34(%edx),%eax
  401c4f:	8b ce                	mov    %esi,%ecx
  401c51:	ff d0                	call   *%eax
  401c53:	8b 16                	mov    (%esi),%edx
  401c55:	89 46 04             	mov    %eax,0x4(%esi)
  401c58:	8b 42 38             	mov    0x38(%edx),%eax
  401c5b:	8b ce                	mov    %esi,%ecx
  401c5d:	ff d0                	call   *%eax
  401c5f:	8b 16                	mov    (%esi),%edx
  401c61:	89 46 04             	mov    %eax,0x4(%esi)
  401c64:	8b 42 3c             	mov    0x3c(%edx),%eax
  401c67:	8b ce                	mov    %esi,%ecx
  401c69:	ff d0                	call   *%eax
  401c6b:	8b 16                	mov    (%esi),%edx
  401c6d:	89 46 04             	mov    %eax,0x4(%esi)
  401c70:	8b 42 40             	mov    0x40(%edx),%eax
  401c73:	8b ce                	mov    %esi,%ecx
  401c75:	ff d0                	call   *%eax
  401c77:	8b 16                	mov    (%esi),%edx
  401c79:	89 46 04             	mov    %eax,0x4(%esi)
  401c7c:	8b 42 44             	mov    0x44(%edx),%eax
  401c7f:	8b ce                	mov    %esi,%ecx
  401c81:	ff d0                	call   *%eax
  401c83:	8b 16                	mov    (%esi),%edx
  401c85:	89 46 04             	mov    %eax,0x4(%esi)
  401c88:	8b 42 48             	mov    0x48(%edx),%eax
  401c8b:	8b ce                	mov    %esi,%ecx
  401c8d:	ff d0                	call   *%eax
  401c8f:	8b 16                	mov    (%esi),%edx
  401c91:	89 46 04             	mov    %eax,0x4(%esi)
  401c94:	8b 42 4c             	mov    0x4c(%edx),%eax
  401c97:	8b ce                	mov    %esi,%ecx
  401c99:	ff d0                	call   *%eax
  401c9b:	8b 16                	mov    (%esi),%edx
  401c9d:	89 46 04             	mov    %eax,0x4(%esi)
  401ca0:	8b 02                	mov    (%edx),%eax
  401ca2:	8b ce                	mov    %esi,%ecx
  401ca4:	ff d0                	call   *%eax
  401ca6:	8b 16                	mov    (%esi),%edx
  401ca8:	89 46 04             	mov    %eax,0x4(%esi)
  401cab:	8b 42 04             	mov    0x4(%edx),%eax
  401cae:	8b ce                	mov    %esi,%ecx
  401cb0:	ff d0                	call   *%eax
  401cb2:	8b 16                	mov    (%esi),%edx
  401cb4:	89 46 04             	mov    %eax,0x4(%esi)
  401cb7:	8b 42 08             	mov    0x8(%edx),%eax
  401cba:	8b ce                	mov    %esi,%ecx
  401cbc:	ff d0                	call   *%eax
  401cbe:	8b 16                	mov    (%esi),%edx
  401cc0:	89 46 04             	mov    %eax,0x4(%esi)
  401cc3:	8b 42 0c             	mov    0xc(%edx),%eax
  401cc6:	8b ce                	mov    %esi,%ecx
  401cc8:	ff d0                	call   *%eax
  401cca:	8b 16                	mov    (%esi),%edx
  401ccc:	89 46 04             	mov    %eax,0x4(%esi)
  401ccf:	8b 42 10             	mov    0x10(%edx),%eax
  401cd2:	8b ce                	mov    %esi,%ecx
  401cd4:	ff d0                	call   *%eax
  401cd6:	8b 16                	mov    (%esi),%edx
  401cd8:	89 46 04             	mov    %eax,0x4(%esi)
  401cdb:	8b 42 14             	mov    0x14(%edx),%eax
  401cde:	8b ce                	mov    %esi,%ecx
  401ce0:	ff d0                	call   *%eax
  401ce2:	8b 16                	mov    (%esi),%edx
  401ce4:	89 46 04             	mov    %eax,0x4(%esi)
  401ce7:	8b 42 18             	mov    0x18(%edx),%eax
  401cea:	8b ce                	mov    %esi,%ecx
  401cec:	ff d0                	call   *%eax
  401cee:	8b 16                	mov    (%esi),%edx
  401cf0:	89 46 04             	mov    %eax,0x4(%esi)
  401cf3:	8b 42 1c             	mov    0x1c(%edx),%eax
  401cf6:	8b ce                	mov    %esi,%ecx
  401cf8:	ff d0                	call   *%eax
  401cfa:	8b 16                	mov    (%esi),%edx
  401cfc:	89 46 04             	mov    %eax,0x4(%esi)
  401cff:	8b 42 20             	mov    0x20(%edx),%eax
  401d02:	8b ce                	mov    %esi,%ecx
  401d04:	ff d0                	call   *%eax
  401d06:	8b 16                	mov    (%esi),%edx
  401d08:	89 46 04             	mov    %eax,0x4(%esi)
  401d0b:	8b 42 24             	mov    0x24(%edx),%eax
  401d0e:	8b ce                	mov    %esi,%ecx
  401d10:	ff d0                	call   *%eax
  401d12:	8b 16                	mov    (%esi),%edx
  401d14:	89 46 04             	mov    %eax,0x4(%esi)
  401d17:	8b 42 28             	mov    0x28(%edx),%eax
  401d1a:	8b ce                	mov    %esi,%ecx
  401d1c:	ff d0                	call   *%eax
  401d1e:	8b 16                	mov    (%esi),%edx
  401d20:	89 46 04             	mov    %eax,0x4(%esi)
  401d23:	8b 42 2c             	mov    0x2c(%edx),%eax
  401d26:	8b ce                	mov    %esi,%ecx
  401d28:	ff d0                	call   *%eax
  401d2a:	8b 16                	mov    (%esi),%edx
  401d2c:	89 46 04             	mov    %eax,0x4(%esi)
  401d2f:	8b 42 30             	mov    0x30(%edx),%eax
  401d32:	8b ce                	mov    %esi,%ecx
  401d34:	ff d0                	call   *%eax
  401d36:	8b 16                	mov    (%esi),%edx
  401d38:	89 46 04             	mov    %eax,0x4(%esi)
  401d3b:	8b 42 34             	mov    0x34(%edx),%eax
  401d3e:	8b ce                	mov    %esi,%ecx
  401d40:	ff d0                	call   *%eax
  401d42:	8b 16                	mov    (%esi),%edx
  401d44:	89 46 04             	mov    %eax,0x4(%esi)
  401d47:	8b 42 38             	mov    0x38(%edx),%eax
  401d4a:	8b ce                	mov    %esi,%ecx
  401d4c:	ff d0                	call   *%eax
  401d4e:	8b 16                	mov    (%esi),%edx
  401d50:	89 46 04             	mov    %eax,0x4(%esi)
  401d53:	8b 42 3c             	mov    0x3c(%edx),%eax
  401d56:	8b ce                	mov    %esi,%ecx
  401d58:	ff d0                	call   *%eax
  401d5a:	8b 16                	mov    (%esi),%edx
  401d5c:	89 46 04             	mov    %eax,0x4(%esi)
  401d5f:	8b ce                	mov    %esi,%ecx
  401d61:	8b 42 40             	mov    0x40(%edx),%eax
  401d64:	ff d0                	call   *%eax
  401d66:	8b 16                	mov    (%esi),%edx
  401d68:	89 46 04             	mov    %eax,0x4(%esi)
  401d6b:	8b 42 44             	mov    0x44(%edx),%eax
  401d6e:	8b ce                	mov    %esi,%ecx
  401d70:	ff d0                	call   *%eax
  401d72:	8b 16                	mov    (%esi),%edx
  401d74:	89 46 04             	mov    %eax,0x4(%esi)
  401d77:	8b 42 48             	mov    0x48(%edx),%eax
  401d7a:	8b ce                	mov    %esi,%ecx
  401d7c:	ff d0                	call   *%eax
  401d7e:	8b 16                	mov    (%esi),%edx
  401d80:	89 46 04             	mov    %eax,0x4(%esi)
  401d83:	8b 42 4c             	mov    0x4c(%edx),%eax
  401d86:	8b ce                	mov    %esi,%ecx
  401d88:	ff d0                	call   *%eax
  401d8a:	8b 16                	mov    (%esi),%edx
  401d8c:	89 46 04             	mov    %eax,0x4(%esi)
  401d8f:	8b 02                	mov    (%edx),%eax
  401d91:	8b ce                	mov    %esi,%ecx
  401d93:	ff d0                	call   *%eax
  401d95:	8b 16                	mov    (%esi),%edx
  401d97:	89 46 04             	mov    %eax,0x4(%esi)
  401d9a:	8b 42 04             	mov    0x4(%edx),%eax
  401d9d:	8b ce                	mov    %esi,%ecx
  401d9f:	ff d0                	call   *%eax
  401da1:	8b 16                	mov    (%esi),%edx
  401da3:	89 46 04             	mov    %eax,0x4(%esi)
  401da6:	8b 42 08             	mov    0x8(%edx),%eax
  401da9:	8b ce                	mov    %esi,%ecx
  401dab:	ff d0                	call   *%eax
  401dad:	8b 16                	mov    (%esi),%edx
  401daf:	89 46 04             	mov    %eax,0x4(%esi)
  401db2:	8b 42 0c             	mov    0xc(%edx),%eax
  401db5:	8b ce                	mov    %esi,%ecx
  401db7:	ff d0                	call   *%eax
  401db9:	8b 16                	mov    (%esi),%edx
  401dbb:	89 46 04             	mov    %eax,0x4(%esi)
  401dbe:	8b 42 10             	mov    0x10(%edx),%eax
  401dc1:	8b ce                	mov    %esi,%ecx
  401dc3:	ff d0                	call   *%eax
  401dc5:	8b 16                	mov    (%esi),%edx
  401dc7:	89 46 04             	mov    %eax,0x4(%esi)
  401dca:	8b 42 14             	mov    0x14(%edx),%eax
  401dcd:	8b ce                	mov    %esi,%ecx
  401dcf:	ff d0                	call   *%eax
  401dd1:	8b 16                	mov    (%esi),%edx
  401dd3:	89 46 04             	mov    %eax,0x4(%esi)
  401dd6:	8b 42 18             	mov    0x18(%edx),%eax
  401dd9:	8b ce                	mov    %esi,%ecx
  401ddb:	ff d0                	call   *%eax
  401ddd:	8b 16                	mov    (%esi),%edx
  401ddf:	89 46 04             	mov    %eax,0x4(%esi)
  401de2:	8b 42 1c             	mov    0x1c(%edx),%eax
  401de5:	8b ce                	mov    %esi,%ecx
  401de7:	ff d0                	call   *%eax
  401de9:	8b 16                	mov    (%esi),%edx
  401deb:	89 46 04             	mov    %eax,0x4(%esi)
  401dee:	8b 42 20             	mov    0x20(%edx),%eax
  401df1:	8b ce                	mov    %esi,%ecx
  401df3:	ff d0                	call   *%eax
  401df5:	8b 16                	mov    (%esi),%edx
  401df7:	89 46 04             	mov    %eax,0x4(%esi)
  401dfa:	8b 42 24             	mov    0x24(%edx),%eax
  401dfd:	8b ce                	mov    %esi,%ecx
  401dff:	ff d0                	call   *%eax
  401e01:	8b 16                	mov    (%esi),%edx
  401e03:	89 46 04             	mov    %eax,0x4(%esi)
  401e06:	8b 42 28             	mov    0x28(%edx),%eax
  401e09:	8b ce                	mov    %esi,%ecx
  401e0b:	ff d0                	call   *%eax
  401e0d:	8b 16                	mov    (%esi),%edx
  401e0f:	89 46 04             	mov    %eax,0x4(%esi)
  401e12:	8b 42 2c             	mov    0x2c(%edx),%eax
  401e15:	8b ce                	mov    %esi,%ecx
  401e17:	ff d0                	call   *%eax
  401e19:	8b 16                	mov    (%esi),%edx
  401e1b:	89 46 04             	mov    %eax,0x4(%esi)
  401e1e:	8b 42 30             	mov    0x30(%edx),%eax
  401e21:	8b ce                	mov    %esi,%ecx
  401e23:	ff d0                	call   *%eax
  401e25:	8b 16                	mov    (%esi),%edx
  401e27:	89 46 04             	mov    %eax,0x4(%esi)
  401e2a:	8b 42 34             	mov    0x34(%edx),%eax
  401e2d:	8b ce                	mov    %esi,%ecx
  401e2f:	ff d0                	call   *%eax
  401e31:	8b 16                	mov    (%esi),%edx
  401e33:	89 46 04             	mov    %eax,0x4(%esi)
  401e36:	8b 42 38             	mov    0x38(%edx),%eax
  401e39:	8b ce                	mov    %esi,%ecx
  401e3b:	ff d0                	call   *%eax
  401e3d:	8b 16                	mov    (%esi),%edx
  401e3f:	89 46 04             	mov    %eax,0x4(%esi)
  401e42:	8b 42 3c             	mov    0x3c(%edx),%eax
  401e45:	8b ce                	mov    %esi,%ecx
  401e47:	ff d0                	call   *%eax
  401e49:	8b 16                	mov    (%esi),%edx
  401e4b:	89 46 04             	mov    %eax,0x4(%esi)
  401e4e:	8b 42 40             	mov    0x40(%edx),%eax
  401e51:	8b ce                	mov    %esi,%ecx
  401e53:	ff d0                	call   *%eax
  401e55:	8b 16                	mov    (%esi),%edx
  401e57:	89 46 04             	mov    %eax,0x4(%esi)
  401e5a:	8b 42 44             	mov    0x44(%edx),%eax
  401e5d:	8b ce                	mov    %esi,%ecx
  401e5f:	ff d0                	call   *%eax
  401e61:	8b 16                	mov    (%esi),%edx
  401e63:	89 46 04             	mov    %eax,0x4(%esi)
  401e66:	8b 42 48             	mov    0x48(%edx),%eax
  401e69:	8b ce                	mov    %esi,%ecx
  401e6b:	ff d0                	call   *%eax
  401e6d:	8b 16                	mov    (%esi),%edx
  401e6f:	89 46 04             	mov    %eax,0x4(%esi)
  401e72:	8b 42 4c             	mov    0x4c(%edx),%eax
  401e75:	8b ce                	mov    %esi,%ecx
  401e77:	ff d0                	call   *%eax
  401e79:	8b 16                	mov    (%esi),%edx
  401e7b:	89 46 04             	mov    %eax,0x4(%esi)
  401e7e:	8b 02                	mov    (%edx),%eax
  401e80:	8b ce                	mov    %esi,%ecx
  401e82:	ff d0                	call   *%eax
  401e84:	8b 16                	mov    (%esi),%edx
  401e86:	89 46 04             	mov    %eax,0x4(%esi)
  401e89:	8b 42 04             	mov    0x4(%edx),%eax
  401e8c:	8b ce                	mov    %esi,%ecx
  401e8e:	ff d0                	call   *%eax
  401e90:	8b 16                	mov    (%esi),%edx
  401e92:	89 46 04             	mov    %eax,0x4(%esi)
  401e95:	8b 42 08             	mov    0x8(%edx),%eax
  401e98:	8b ce                	mov    %esi,%ecx
  401e9a:	ff d0                	call   *%eax
  401e9c:	8b 16                	mov    (%esi),%edx
  401e9e:	89 46 04             	mov    %eax,0x4(%esi)
  401ea1:	8b 42 0c             	mov    0xc(%edx),%eax
  401ea4:	8b ce                	mov    %esi,%ecx
  401ea6:	ff d0                	call   *%eax
  401ea8:	8b 16                	mov    (%esi),%edx
  401eaa:	89 46 04             	mov    %eax,0x4(%esi)
  401ead:	8b 42 10             	mov    0x10(%edx),%eax
  401eb0:	8b ce                	mov    %esi,%ecx
  401eb2:	ff d0                	call   *%eax
  401eb4:	8b 16                	mov    (%esi),%edx
  401eb6:	89 46 04             	mov    %eax,0x4(%esi)
  401eb9:	8b 42 14             	mov    0x14(%edx),%eax
  401ebc:	8b ce                	mov    %esi,%ecx
  401ebe:	ff d0                	call   *%eax
  401ec0:	8b 16                	mov    (%esi),%edx
  401ec2:	89 46 04             	mov    %eax,0x4(%esi)
  401ec5:	8b 42 18             	mov    0x18(%edx),%eax
  401ec8:	8b ce                	mov    %esi,%ecx
  401eca:	ff d0                	call   *%eax
  401ecc:	8b 16                	mov    (%esi),%edx
  401ece:	89 46 04             	mov    %eax,0x4(%esi)
  401ed1:	8b 42 1c             	mov    0x1c(%edx),%eax
  401ed4:	8b ce                	mov    %esi,%ecx
  401ed6:	ff d0                	call   *%eax
  401ed8:	8b 16                	mov    (%esi),%edx
  401eda:	89 46 04             	mov    %eax,0x4(%esi)
  401edd:	8b 42 20             	mov    0x20(%edx),%eax
  401ee0:	8b ce                	mov    %esi,%ecx
  401ee2:	ff d0                	call   *%eax
  401ee4:	8b 16                	mov    (%esi),%edx
  401ee6:	89 46 04             	mov    %eax,0x4(%esi)
  401ee9:	8b 42 24             	mov    0x24(%edx),%eax
  401eec:	8b ce                	mov    %esi,%ecx
  401eee:	ff d0                	call   *%eax
  401ef0:	8b 16                	mov    (%esi),%edx
  401ef2:	89 46 04             	mov    %eax,0x4(%esi)
  401ef5:	8b 42 28             	mov    0x28(%edx),%eax
  401ef8:	8b ce                	mov    %esi,%ecx
  401efa:	ff d0                	call   *%eax
  401efc:	8b 16                	mov    (%esi),%edx
  401efe:	89 46 04             	mov    %eax,0x4(%esi)
  401f01:	8b 42 2c             	mov    0x2c(%edx),%eax
  401f04:	8b ce                	mov    %esi,%ecx
  401f06:	ff d0                	call   *%eax
  401f08:	8b 16                	mov    (%esi),%edx
  401f0a:	89 46 04             	mov    %eax,0x4(%esi)
  401f0d:	8b 42 30             	mov    0x30(%edx),%eax
  401f10:	8b ce                	mov    %esi,%ecx
  401f12:	ff d0                	call   *%eax
  401f14:	8b 16                	mov    (%esi),%edx
  401f16:	89 46 04             	mov    %eax,0x4(%esi)
  401f19:	8b 42 34             	mov    0x34(%edx),%eax
  401f1c:	8b ce                	mov    %esi,%ecx
  401f1e:	ff d0                	call   *%eax
  401f20:	8b 16                	mov    (%esi),%edx
  401f22:	89 46 04             	mov    %eax,0x4(%esi)
  401f25:	8b 42 38             	mov    0x38(%edx),%eax
  401f28:	8b ce                	mov    %esi,%ecx
  401f2a:	ff d0                	call   *%eax
  401f2c:	8b 16                	mov    (%esi),%edx
  401f2e:	89 46 04             	mov    %eax,0x4(%esi)
  401f31:	8b 42 3c             	mov    0x3c(%edx),%eax
  401f34:	8b ce                	mov    %esi,%ecx
  401f36:	ff d0                	call   *%eax
  401f38:	8b 16                	mov    (%esi),%edx
  401f3a:	89 46 04             	mov    %eax,0x4(%esi)
  401f3d:	8b 42 40             	mov    0x40(%edx),%eax
  401f40:	8b ce                	mov    %esi,%ecx
  401f42:	ff d0                	call   *%eax
  401f44:	8b 16                	mov    (%esi),%edx
  401f46:	89 46 04             	mov    %eax,0x4(%esi)
  401f49:	8b 42 44             	mov    0x44(%edx),%eax
  401f4c:	8b ce                	mov    %esi,%ecx
  401f4e:	ff d0                	call   *%eax
  401f50:	8b 16                	mov    (%esi),%edx
  401f52:	89 46 04             	mov    %eax,0x4(%esi)
  401f55:	8b 42 48             	mov    0x48(%edx),%eax
  401f58:	8b ce                	mov    %esi,%ecx
  401f5a:	ff d0                	call   *%eax
  401f5c:	8b 16                	mov    (%esi),%edx
  401f5e:	89 46 04             	mov    %eax,0x4(%esi)
  401f61:	8b 42 4c             	mov    0x4c(%edx),%eax
  401f64:	8b ce                	mov    %esi,%ecx
  401f66:	ff d0                	call   *%eax
  401f68:	8b 16                	mov    (%esi),%edx
  401f6a:	89 46 04             	mov    %eax,0x4(%esi)
  401f6d:	8b 02                	mov    (%edx),%eax
  401f6f:	8b ce                	mov    %esi,%ecx
  401f71:	ff d0                	call   *%eax
  401f73:	8b 16                	mov    (%esi),%edx
  401f75:	89 46 04             	mov    %eax,0x4(%esi)
  401f78:	8b 42 04             	mov    0x4(%edx),%eax
  401f7b:	8b ce                	mov    %esi,%ecx
  401f7d:	ff d0                	call   *%eax
  401f7f:	8b 16                	mov    (%esi),%edx
  401f81:	89 46 04             	mov    %eax,0x4(%esi)
  401f84:	8b 42 08             	mov    0x8(%edx),%eax
  401f87:	8b ce                	mov    %esi,%ecx
  401f89:	ff d0                	call   *%eax
  401f8b:	8b 16                	mov    (%esi),%edx
  401f8d:	89 46 04             	mov    %eax,0x4(%esi)
  401f90:	8b 42 0c             	mov    0xc(%edx),%eax
  401f93:	8b ce                	mov    %esi,%ecx
  401f95:	ff d0                	call   *%eax
  401f97:	8b 16                	mov    (%esi),%edx
  401f99:	89 46 04             	mov    %eax,0x4(%esi)
  401f9c:	8b 42 10             	mov    0x10(%edx),%eax
  401f9f:	8b ce                	mov    %esi,%ecx
  401fa1:	ff d0                	call   *%eax
  401fa3:	89 46 04             	mov    %eax,0x4(%esi)
  401fa6:	8b 16                	mov    (%esi),%edx
  401fa8:	8b 42 14             	mov    0x14(%edx),%eax
  401fab:	8b ce                	mov    %esi,%ecx
  401fad:	ff d0                	call   *%eax
  401faf:	8b 16                	mov    (%esi),%edx
  401fb1:	89 46 04             	mov    %eax,0x4(%esi)
  401fb4:	8b 42 18             	mov    0x18(%edx),%eax
  401fb7:	8b ce                	mov    %esi,%ecx
  401fb9:	ff d0                	call   *%eax
  401fbb:	8b 16                	mov    (%esi),%edx
  401fbd:	89 46 04             	mov    %eax,0x4(%esi)
  401fc0:	8b 42 1c             	mov    0x1c(%edx),%eax
  401fc3:	8b ce                	mov    %esi,%ecx
  401fc5:	ff d0                	call   *%eax
  401fc7:	8b 16                	mov    (%esi),%edx
  401fc9:	89 46 04             	mov    %eax,0x4(%esi)
  401fcc:	8b 42 20             	mov    0x20(%edx),%eax
  401fcf:	8b ce                	mov    %esi,%ecx
  401fd1:	ff d0                	call   *%eax
  401fd3:	8b 16                	mov    (%esi),%edx
  401fd5:	89 46 04             	mov    %eax,0x4(%esi)
  401fd8:	8b 42 24             	mov    0x24(%edx),%eax
  401fdb:	8b ce                	mov    %esi,%ecx
  401fdd:	ff d0                	call   *%eax
  401fdf:	8b 16                	mov    (%esi),%edx
  401fe1:	89 46 04             	mov    %eax,0x4(%esi)
  401fe4:	8b 42 28             	mov    0x28(%edx),%eax
  401fe7:	8b ce                	mov    %esi,%ecx
  401fe9:	ff d0                	call   *%eax
  401feb:	8b 16                	mov    (%esi),%edx
  401fed:	89 46 04             	mov    %eax,0x4(%esi)
  401ff0:	8b 42 2c             	mov    0x2c(%edx),%eax
  401ff3:	8b ce                	mov    %esi,%ecx
  401ff5:	ff d0                	call   *%eax
  401ff7:	8b 16                	mov    (%esi),%edx
  401ff9:	89 46 04             	mov    %eax,0x4(%esi)
  401ffc:	8b 42 30             	mov    0x30(%edx),%eax
  401fff:	8b ce                	mov    %esi,%ecx
  402001:	ff d0                	call   *%eax
  402003:	8b 16                	mov    (%esi),%edx
  402005:	89 46 04             	mov    %eax,0x4(%esi)
  402008:	8b 42 34             	mov    0x34(%edx),%eax
  40200b:	8b ce                	mov    %esi,%ecx
  40200d:	ff d0                	call   *%eax
  40200f:	8b 16                	mov    (%esi),%edx
  402011:	89 46 04             	mov    %eax,0x4(%esi)
  402014:	8b 42 38             	mov    0x38(%edx),%eax
  402017:	8b ce                	mov    %esi,%ecx
  402019:	ff d0                	call   *%eax
  40201b:	8b 16                	mov    (%esi),%edx
  40201d:	89 46 04             	mov    %eax,0x4(%esi)
  402020:	8b 42 3c             	mov    0x3c(%edx),%eax
  402023:	8b ce                	mov    %esi,%ecx
  402025:	ff d0                	call   *%eax
  402027:	8b 16                	mov    (%esi),%edx
  402029:	89 46 04             	mov    %eax,0x4(%esi)
  40202c:	8b 42 40             	mov    0x40(%edx),%eax
  40202f:	8b ce                	mov    %esi,%ecx
  402031:	ff d0                	call   *%eax
  402033:	8b 16                	mov    (%esi),%edx
  402035:	89 46 04             	mov    %eax,0x4(%esi)
  402038:	8b 42 44             	mov    0x44(%edx),%eax
  40203b:	8b ce                	mov    %esi,%ecx
  40203d:	ff d0                	call   *%eax
  40203f:	8b 16                	mov    (%esi),%edx
  402041:	89 46 04             	mov    %eax,0x4(%esi)
  402044:	8b 42 48             	mov    0x48(%edx),%eax
  402047:	8b ce                	mov    %esi,%ecx
  402049:	ff d0                	call   *%eax
  40204b:	8b 16                	mov    (%esi),%edx
  40204d:	89 46 04             	mov    %eax,0x4(%esi)
  402050:	8b 42 4c             	mov    0x4c(%edx),%eax
  402053:	8b ce                	mov    %esi,%ecx
  402055:	ff d0                	call   *%eax
  402057:	8b 16                	mov    (%esi),%edx
  402059:	89 46 04             	mov    %eax,0x4(%esi)
  40205c:	8b 02                	mov    (%edx),%eax
  40205e:	8b ce                	mov    %esi,%ecx
  402060:	ff d0                	call   *%eax
  402062:	8b 16                	mov    (%esi),%edx
  402064:	89 46 04             	mov    %eax,0x4(%esi)
  402067:	8b 42 04             	mov    0x4(%edx),%eax
  40206a:	8b ce                	mov    %esi,%ecx
  40206c:	ff d0                	call   *%eax
  40206e:	8b 16                	mov    (%esi),%edx
  402070:	89 46 04             	mov    %eax,0x4(%esi)
  402073:	8b 42 08             	mov    0x8(%edx),%eax
  402076:	8b ce                	mov    %esi,%ecx
  402078:	ff d0                	call   *%eax
  40207a:	8b 16                	mov    (%esi),%edx
  40207c:	89 46 04             	mov    %eax,0x4(%esi)
  40207f:	8b 42 0c             	mov    0xc(%edx),%eax
  402082:	8b ce                	mov    %esi,%ecx
  402084:	ff d0                	call   *%eax
  402086:	8b 16                	mov    (%esi),%edx
  402088:	89 46 04             	mov    %eax,0x4(%esi)
  40208b:	8b 42 10             	mov    0x10(%edx),%eax
  40208e:	8b ce                	mov    %esi,%ecx
  402090:	ff d0                	call   *%eax
  402092:	8b 16                	mov    (%esi),%edx
  402094:	89 46 04             	mov    %eax,0x4(%esi)
  402097:	8b 42 14             	mov    0x14(%edx),%eax
  40209a:	8b ce                	mov    %esi,%ecx
  40209c:	ff d0                	call   *%eax
  40209e:	8b 16                	mov    (%esi),%edx
  4020a0:	89 46 04             	mov    %eax,0x4(%esi)
  4020a3:	8b 42 18             	mov    0x18(%edx),%eax
  4020a6:	8b ce                	mov    %esi,%ecx
  4020a8:	ff d0                	call   *%eax
  4020aa:	8b 16                	mov    (%esi),%edx
  4020ac:	89 46 04             	mov    %eax,0x4(%esi)
  4020af:	8b 42 1c             	mov    0x1c(%edx),%eax
  4020b2:	8b ce                	mov    %esi,%ecx
  4020b4:	ff d0                	call   *%eax
  4020b6:	8b 16                	mov    (%esi),%edx
  4020b8:	89 46 04             	mov    %eax,0x4(%esi)
  4020bb:	8b 42 20             	mov    0x20(%edx),%eax
  4020be:	8b ce                	mov    %esi,%ecx
  4020c0:	ff d0                	call   *%eax
  4020c2:	8b 16                	mov    (%esi),%edx
  4020c4:	89 46 04             	mov    %eax,0x4(%esi)
  4020c7:	8b 42 24             	mov    0x24(%edx),%eax
  4020ca:	8b ce                	mov    %esi,%ecx
  4020cc:	ff d0                	call   *%eax
  4020ce:	8b 16                	mov    (%esi),%edx
  4020d0:	89 46 04             	mov    %eax,0x4(%esi)
  4020d3:	8b 42 28             	mov    0x28(%edx),%eax
  4020d6:	8b ce                	mov    %esi,%ecx
  4020d8:	ff d0                	call   *%eax
  4020da:	8b 16                	mov    (%esi),%edx
  4020dc:	89 46 04             	mov    %eax,0x4(%esi)
  4020df:	8b 42 2c             	mov    0x2c(%edx),%eax
  4020e2:	8b ce                	mov    %esi,%ecx
  4020e4:	ff d0                	call   *%eax
  4020e6:	8b 16                	mov    (%esi),%edx
  4020e8:	89 46 04             	mov    %eax,0x4(%esi)
  4020eb:	8b 42 30             	mov    0x30(%edx),%eax
  4020ee:	8b ce                	mov    %esi,%ecx
  4020f0:	ff d0                	call   *%eax
  4020f2:	8b 16                	mov    (%esi),%edx
  4020f4:	89 46 04             	mov    %eax,0x4(%esi)
  4020f7:	8b 42 34             	mov    0x34(%edx),%eax
  4020fa:	8b ce                	mov    %esi,%ecx
  4020fc:	ff d0                	call   *%eax
  4020fe:	8b 16                	mov    (%esi),%edx
  402100:	89 46 04             	mov    %eax,0x4(%esi)
  402103:	8b 42 38             	mov    0x38(%edx),%eax
  402106:	8b ce                	mov    %esi,%ecx
  402108:	ff d0                	call   *%eax
  40210a:	8b 16                	mov    (%esi),%edx
  40210c:	89 46 04             	mov    %eax,0x4(%esi)
  40210f:	8b 42 3c             	mov    0x3c(%edx),%eax
  402112:	8b ce                	mov    %esi,%ecx
  402114:	ff d0                	call   *%eax
  402116:	8b 16                	mov    (%esi),%edx
  402118:	89 46 04             	mov    %eax,0x4(%esi)
  40211b:	8b 42 40             	mov    0x40(%edx),%eax
  40211e:	8b ce                	mov    %esi,%ecx
  402120:	ff d0                	call   *%eax
  402122:	8b 16                	mov    (%esi),%edx
  402124:	89 46 04             	mov    %eax,0x4(%esi)
  402127:	8b ce                	mov    %esi,%ecx
  402129:	8b 42 44             	mov    0x44(%edx),%eax
  40212c:	ff d0                	call   *%eax
  40212e:	8b 16                	mov    (%esi),%edx
  402130:	89 46 04             	mov    %eax,0x4(%esi)
  402133:	8b 42 48             	mov    0x48(%edx),%eax
  402136:	8b ce                	mov    %esi,%ecx
  402138:	ff d0                	call   *%eax
  40213a:	8b 16                	mov    (%esi),%edx
  40213c:	89 46 04             	mov    %eax,0x4(%esi)
  40213f:	8b 42 4c             	mov    0x4c(%edx),%eax
  402142:	8b ce                	mov    %esi,%ecx
  402144:	ff d0                	call   *%eax
  402146:	8b 16                	mov    (%esi),%edx
  402148:	89 46 04             	mov    %eax,0x4(%esi)
  40214b:	8b 02                	mov    (%edx),%eax
  40214d:	8b ce                	mov    %esi,%ecx
  40214f:	ff d0                	call   *%eax
  402151:	8b 16                	mov    (%esi),%edx
  402153:	89 46 04             	mov    %eax,0x4(%esi)
  402156:	8b 42 04             	mov    0x4(%edx),%eax
  402159:	8b ce                	mov    %esi,%ecx
  40215b:	ff d0                	call   *%eax
  40215d:	8b 16                	mov    (%esi),%edx
  40215f:	89 46 04             	mov    %eax,0x4(%esi)
  402162:	8b 42 08             	mov    0x8(%edx),%eax
  402165:	8b ce                	mov    %esi,%ecx
  402167:	ff d0                	call   *%eax
  402169:	8b 16                	mov    (%esi),%edx
  40216b:	89 46 04             	mov    %eax,0x4(%esi)
  40216e:	8b 42 0c             	mov    0xc(%edx),%eax
  402171:	8b ce                	mov    %esi,%ecx
  402173:	ff d0                	call   *%eax
  402175:	8b 16                	mov    (%esi),%edx
  402177:	89 46 04             	mov    %eax,0x4(%esi)
  40217a:	8b 42 10             	mov    0x10(%edx),%eax
  40217d:	8b ce                	mov    %esi,%ecx
  40217f:	ff d0                	call   *%eax
  402181:	8b 16                	mov    (%esi),%edx
  402183:	89 46 04             	mov    %eax,0x4(%esi)
  402186:	8b 42 14             	mov    0x14(%edx),%eax
  402189:	8b ce                	mov    %esi,%ecx
  40218b:	ff d0                	call   *%eax
  40218d:	8b 16                	mov    (%esi),%edx
  40218f:	89 46 04             	mov    %eax,0x4(%esi)
  402192:	8b 42 18             	mov    0x18(%edx),%eax
  402195:	8b ce                	mov    %esi,%ecx
  402197:	ff d0                	call   *%eax
  402199:	8b 16                	mov    (%esi),%edx
  40219b:	89 46 04             	mov    %eax,0x4(%esi)
  40219e:	8b 42 1c             	mov    0x1c(%edx),%eax
  4021a1:	8b ce                	mov    %esi,%ecx
  4021a3:	ff d0                	call   *%eax
  4021a5:	8b 16                	mov    (%esi),%edx
  4021a7:	89 46 04             	mov    %eax,0x4(%esi)
  4021aa:	8b 42 20             	mov    0x20(%edx),%eax
  4021ad:	8b ce                	mov    %esi,%ecx
  4021af:	ff d0                	call   *%eax
  4021b1:	8b 16                	mov    (%esi),%edx
  4021b3:	89 46 04             	mov    %eax,0x4(%esi)
  4021b6:	8b 42 24             	mov    0x24(%edx),%eax
  4021b9:	8b ce                	mov    %esi,%ecx
  4021bb:	ff d0                	call   *%eax
  4021bd:	8b 16                	mov    (%esi),%edx
  4021bf:	89 46 04             	mov    %eax,0x4(%esi)
  4021c2:	8b 42 28             	mov    0x28(%edx),%eax
  4021c5:	8b ce                	mov    %esi,%ecx
  4021c7:	ff d0                	call   *%eax
  4021c9:	8b 16                	mov    (%esi),%edx
  4021cb:	89 46 04             	mov    %eax,0x4(%esi)
  4021ce:	8b 42 2c             	mov    0x2c(%edx),%eax
  4021d1:	8b ce                	mov    %esi,%ecx
  4021d3:	ff d0                	call   *%eax
  4021d5:	8b 16                	mov    (%esi),%edx
  4021d7:	89 46 04             	mov    %eax,0x4(%esi)
  4021da:	8b 42 30             	mov    0x30(%edx),%eax
  4021dd:	8b ce                	mov    %esi,%ecx
  4021df:	ff d0                	call   *%eax
  4021e1:	8b 16                	mov    (%esi),%edx
  4021e3:	89 46 04             	mov    %eax,0x4(%esi)
  4021e6:	8b 42 34             	mov    0x34(%edx),%eax
  4021e9:	8b ce                	mov    %esi,%ecx
  4021eb:	ff d0                	call   *%eax
  4021ed:	8b 16                	mov    (%esi),%edx
  4021ef:	89 46 04             	mov    %eax,0x4(%esi)
  4021f2:	8b 42 38             	mov    0x38(%edx),%eax
  4021f5:	8b ce                	mov    %esi,%ecx
  4021f7:	ff d0                	call   *%eax
  4021f9:	8b 16                	mov    (%esi),%edx
  4021fb:	89 46 04             	mov    %eax,0x4(%esi)
  4021fe:	8b 42 3c             	mov    0x3c(%edx),%eax
  402201:	8b ce                	mov    %esi,%ecx
  402203:	ff d0                	call   *%eax
  402205:	8b 16                	mov    (%esi),%edx
  402207:	89 46 04             	mov    %eax,0x4(%esi)
  40220a:	8b 42 40             	mov    0x40(%edx),%eax
  40220d:	8b ce                	mov    %esi,%ecx
  40220f:	ff d0                	call   *%eax
  402211:	8b 16                	mov    (%esi),%edx
  402213:	89 46 04             	mov    %eax,0x4(%esi)
  402216:	8b 42 44             	mov    0x44(%edx),%eax
  402219:	8b ce                	mov    %esi,%ecx
  40221b:	ff d0                	call   *%eax
  40221d:	8b 16                	mov    (%esi),%edx
  40221f:	89 46 04             	mov    %eax,0x4(%esi)
  402222:	8b 42 48             	mov    0x48(%edx),%eax
  402225:	8b ce                	mov    %esi,%ecx
  402227:	ff d0                	call   *%eax
  402229:	8b 16                	mov    (%esi),%edx
  40222b:	89 46 04             	mov    %eax,0x4(%esi)
  40222e:	8b 42 4c             	mov    0x4c(%edx),%eax
  402231:	8b ce                	mov    %esi,%ecx
  402233:	ff d0                	call   *%eax
  402235:	8b 16                	mov    (%esi),%edx
  402237:	89 46 04             	mov    %eax,0x4(%esi)
  40223a:	8b 02                	mov    (%edx),%eax
  40223c:	8b ce                	mov    %esi,%ecx
  40223e:	ff d0                	call   *%eax
  402240:	8b 16                	mov    (%esi),%edx
  402242:	89 46 04             	mov    %eax,0x4(%esi)
  402245:	8b 42 04             	mov    0x4(%edx),%eax
  402248:	8b ce                	mov    %esi,%ecx
  40224a:	ff d0                	call   *%eax
  40224c:	8b 16                	mov    (%esi),%edx
  40224e:	89 46 04             	mov    %eax,0x4(%esi)
  402251:	8b 42 08             	mov    0x8(%edx),%eax
  402254:	8b ce                	mov    %esi,%ecx
  402256:	ff d0                	call   *%eax
  402258:	8b 16                	mov    (%esi),%edx
  40225a:	89 46 04             	mov    %eax,0x4(%esi)
  40225d:	8b 42 0c             	mov    0xc(%edx),%eax
  402260:	8b ce                	mov    %esi,%ecx
  402262:	ff d0                	call   *%eax
  402264:	8b 16                	mov    (%esi),%edx
  402266:	89 46 04             	mov    %eax,0x4(%esi)
  402269:	8b 42 10             	mov    0x10(%edx),%eax
  40226c:	8b ce                	mov    %esi,%ecx
  40226e:	ff d0                	call   *%eax
  402270:	8b 16                	mov    (%esi),%edx
  402272:	89 46 04             	mov    %eax,0x4(%esi)
  402275:	8b 42 14             	mov    0x14(%edx),%eax
  402278:	8b ce                	mov    %esi,%ecx
  40227a:	ff d0                	call   *%eax
  40227c:	8b 16                	mov    (%esi),%edx
  40227e:	89 46 04             	mov    %eax,0x4(%esi)
  402281:	8b 42 18             	mov    0x18(%edx),%eax
  402284:	8b ce                	mov    %esi,%ecx
  402286:	ff d0                	call   *%eax
  402288:	8b 16                	mov    (%esi),%edx
  40228a:	89 46 04             	mov    %eax,0x4(%esi)
  40228d:	8b 42 1c             	mov    0x1c(%edx),%eax
  402290:	8b ce                	mov    %esi,%ecx
  402292:	ff d0                	call   *%eax
  402294:	8b 16                	mov    (%esi),%edx
  402296:	89 46 04             	mov    %eax,0x4(%esi)
  402299:	8b 42 20             	mov    0x20(%edx),%eax
  40229c:	8b ce                	mov    %esi,%ecx
  40229e:	ff d0                	call   *%eax
  4022a0:	8b 16                	mov    (%esi),%edx
  4022a2:	89 46 04             	mov    %eax,0x4(%esi)
  4022a5:	8b 42 24             	mov    0x24(%edx),%eax
  4022a8:	8b ce                	mov    %esi,%ecx
  4022aa:	ff d0                	call   *%eax
  4022ac:	8b 16                	mov    (%esi),%edx
  4022ae:	89 46 04             	mov    %eax,0x4(%esi)
  4022b1:	8b 42 28             	mov    0x28(%edx),%eax
  4022b4:	8b ce                	mov    %esi,%ecx
  4022b6:	ff d0                	call   *%eax
  4022b8:	8b 16                	mov    (%esi),%edx
  4022ba:	89 46 04             	mov    %eax,0x4(%esi)
  4022bd:	8b 42 2c             	mov    0x2c(%edx),%eax
  4022c0:	8b ce                	mov    %esi,%ecx
  4022c2:	ff d0                	call   *%eax
  4022c4:	8b 16                	mov    (%esi),%edx
  4022c6:	89 46 04             	mov    %eax,0x4(%esi)
  4022c9:	8b 42 30             	mov    0x30(%edx),%eax
  4022cc:	8b ce                	mov    %esi,%ecx
  4022ce:	ff d0                	call   *%eax
  4022d0:	8b 16                	mov    (%esi),%edx
  4022d2:	89 46 04             	mov    %eax,0x4(%esi)
  4022d5:	8b 42 34             	mov    0x34(%edx),%eax
  4022d8:	8b ce                	mov    %esi,%ecx
  4022da:	ff d0                	call   *%eax
  4022dc:	8b 16                	mov    (%esi),%edx
  4022de:	89 46 04             	mov    %eax,0x4(%esi)
  4022e1:	8b 42 38             	mov    0x38(%edx),%eax
  4022e4:	8b ce                	mov    %esi,%ecx
  4022e6:	ff d0                	call   *%eax
  4022e8:	8b 16                	mov    (%esi),%edx
  4022ea:	89 46 04             	mov    %eax,0x4(%esi)
  4022ed:	8b 42 3c             	mov    0x3c(%edx),%eax
  4022f0:	8b ce                	mov    %esi,%ecx
  4022f2:	ff d0                	call   *%eax
  4022f4:	8b 16                	mov    (%esi),%edx
  4022f6:	89 46 04             	mov    %eax,0x4(%esi)
  4022f9:	8b 42 40             	mov    0x40(%edx),%eax
  4022fc:	8b ce                	mov    %esi,%ecx
  4022fe:	ff d0                	call   *%eax
  402300:	8b 16                	mov    (%esi),%edx
  402302:	89 46 04             	mov    %eax,0x4(%esi)
  402305:	8b 42 44             	mov    0x44(%edx),%eax
  402308:	8b ce                	mov    %esi,%ecx
  40230a:	ff d0                	call   *%eax
  40230c:	8b 16                	mov    (%esi),%edx
  40230e:	89 46 04             	mov    %eax,0x4(%esi)
  402311:	8b 42 48             	mov    0x48(%edx),%eax
  402314:	8b ce                	mov    %esi,%ecx
  402316:	ff d0                	call   *%eax
  402318:	8b 16                	mov    (%esi),%edx
  40231a:	89 46 04             	mov    %eax,0x4(%esi)
  40231d:	8b 42 4c             	mov    0x4c(%edx),%eax
  402320:	8b ce                	mov    %esi,%ecx
  402322:	ff d0                	call   *%eax
  402324:	8b 16                	mov    (%esi),%edx
  402326:	89 46 04             	mov    %eax,0x4(%esi)
  402329:	8b 02                	mov    (%edx),%eax
  40232b:	8b ce                	mov    %esi,%ecx
  40232d:	ff d0                	call   *%eax
  40232f:	8b 16                	mov    (%esi),%edx
  402331:	89 46 04             	mov    %eax,0x4(%esi)
  402334:	8b 42 04             	mov    0x4(%edx),%eax
  402337:	8b ce                	mov    %esi,%ecx
  402339:	ff d0                	call   *%eax
  40233b:	8b 16                	mov    (%esi),%edx
  40233d:	89 46 04             	mov    %eax,0x4(%esi)
  402340:	8b 42 08             	mov    0x8(%edx),%eax
  402343:	8b ce                	mov    %esi,%ecx
  402345:	ff d0                	call   *%eax
  402347:	8b 16                	mov    (%esi),%edx
  402349:	89 46 04             	mov    %eax,0x4(%esi)
  40234c:	8b 42 0c             	mov    0xc(%edx),%eax
  40234f:	8b ce                	mov    %esi,%ecx
  402351:	ff d0                	call   *%eax
  402353:	8b 16                	mov    (%esi),%edx
  402355:	89 46 04             	mov    %eax,0x4(%esi)
  402358:	8b 42 10             	mov    0x10(%edx),%eax
  40235b:	8b ce                	mov    %esi,%ecx
  40235d:	ff d0                	call   *%eax
  40235f:	8b 16                	mov    (%esi),%edx
  402361:	89 46 04             	mov    %eax,0x4(%esi)
  402364:	8b 42 14             	mov    0x14(%edx),%eax
  402367:	8b ce                	mov    %esi,%ecx
  402369:	ff d0                	call   *%eax
  40236b:	89 46 04             	mov    %eax,0x4(%esi)
  40236e:	8b 16                	mov    (%esi),%edx
  402370:	8b 42 18             	mov    0x18(%edx),%eax
  402373:	8b ce                	mov    %esi,%ecx
  402375:	ff d0                	call   *%eax
  402377:	8b 16                	mov    (%esi),%edx
  402379:	89 46 04             	mov    %eax,0x4(%esi)
  40237c:	8b 42 1c             	mov    0x1c(%edx),%eax
  40237f:	8b ce                	mov    %esi,%ecx
  402381:	ff d0                	call   *%eax
  402383:	8b 16                	mov    (%esi),%edx
  402385:	89 46 04             	mov    %eax,0x4(%esi)
  402388:	8b 42 20             	mov    0x20(%edx),%eax
  40238b:	8b ce                	mov    %esi,%ecx
  40238d:	ff d0                	call   *%eax
  40238f:	8b 16                	mov    (%esi),%edx
  402391:	89 46 04             	mov    %eax,0x4(%esi)
  402394:	8b 42 24             	mov    0x24(%edx),%eax
  402397:	8b ce                	mov    %esi,%ecx
  402399:	ff d0                	call   *%eax
  40239b:	8b 16                	mov    (%esi),%edx
  40239d:	89 46 04             	mov    %eax,0x4(%esi)
  4023a0:	8b 42 28             	mov    0x28(%edx),%eax
  4023a3:	8b ce                	mov    %esi,%ecx
  4023a5:	ff d0                	call   *%eax
  4023a7:	8b 16                	mov    (%esi),%edx
  4023a9:	89 46 04             	mov    %eax,0x4(%esi)
  4023ac:	8b 42 2c             	mov    0x2c(%edx),%eax
  4023af:	8b ce                	mov    %esi,%ecx
  4023b1:	ff d0                	call   *%eax
  4023b3:	8b 16                	mov    (%esi),%edx
  4023b5:	89 46 04             	mov    %eax,0x4(%esi)
  4023b8:	8b 42 30             	mov    0x30(%edx),%eax
  4023bb:	8b ce                	mov    %esi,%ecx
  4023bd:	ff d0                	call   *%eax
  4023bf:	8b 16                	mov    (%esi),%edx
  4023c1:	89 46 04             	mov    %eax,0x4(%esi)
  4023c4:	8b 42 34             	mov    0x34(%edx),%eax
  4023c7:	8b ce                	mov    %esi,%ecx
  4023c9:	ff d0                	call   *%eax
  4023cb:	8b 16                	mov    (%esi),%edx
  4023cd:	89 46 04             	mov    %eax,0x4(%esi)
  4023d0:	8b 42 38             	mov    0x38(%edx),%eax
  4023d3:	8b ce                	mov    %esi,%ecx
  4023d5:	ff d0                	call   *%eax
  4023d7:	8b 16                	mov    (%esi),%edx
  4023d9:	89 46 04             	mov    %eax,0x4(%esi)
  4023dc:	8b 42 3c             	mov    0x3c(%edx),%eax
  4023df:	8b ce                	mov    %esi,%ecx
  4023e1:	ff d0                	call   *%eax
  4023e3:	8b 16                	mov    (%esi),%edx
  4023e5:	89 46 04             	mov    %eax,0x4(%esi)
  4023e8:	8b 42 40             	mov    0x40(%edx),%eax
  4023eb:	8b ce                	mov    %esi,%ecx
  4023ed:	ff d0                	call   *%eax
  4023ef:	8b 16                	mov    (%esi),%edx
  4023f1:	89 46 04             	mov    %eax,0x4(%esi)
  4023f4:	8b 42 44             	mov    0x44(%edx),%eax
  4023f7:	8b ce                	mov    %esi,%ecx
  4023f9:	ff d0                	call   *%eax
  4023fb:	8b 16                	mov    (%esi),%edx
  4023fd:	89 46 04             	mov    %eax,0x4(%esi)
  402400:	8b 42 48             	mov    0x48(%edx),%eax
  402403:	8b ce                	mov    %esi,%ecx
  402405:	ff d0                	call   *%eax
  402407:	8b 16                	mov    (%esi),%edx
  402409:	89 46 04             	mov    %eax,0x4(%esi)
  40240c:	8b 42 4c             	mov    0x4c(%edx),%eax
  40240f:	8b ce                	mov    %esi,%ecx
  402411:	ff d0                	call   *%eax
  402413:	8b 16                	mov    (%esi),%edx
  402415:	89 46 04             	mov    %eax,0x4(%esi)
  402418:	8b 02                	mov    (%edx),%eax
  40241a:	8b ce                	mov    %esi,%ecx
  40241c:	ff d0                	call   *%eax
  40241e:	8b 16                	mov    (%esi),%edx
  402420:	89 46 04             	mov    %eax,0x4(%esi)
  402423:	8b 42 04             	mov    0x4(%edx),%eax
  402426:	8b ce                	mov    %esi,%ecx
  402428:	ff d0                	call   *%eax
  40242a:	8b 16                	mov    (%esi),%edx
  40242c:	89 46 04             	mov    %eax,0x4(%esi)
  40242f:	8b 42 08             	mov    0x8(%edx),%eax
  402432:	8b ce                	mov    %esi,%ecx
  402434:	ff d0                	call   *%eax
  402436:	8b 16                	mov    (%esi),%edx
  402438:	89 46 04             	mov    %eax,0x4(%esi)
  40243b:	8b 42 0c             	mov    0xc(%edx),%eax
  40243e:	8b ce                	mov    %esi,%ecx
  402440:	ff d0                	call   *%eax
  402442:	8b 16                	mov    (%esi),%edx
  402444:	89 46 04             	mov    %eax,0x4(%esi)
  402447:	8b 42 10             	mov    0x10(%edx),%eax
  40244a:	8b ce                	mov    %esi,%ecx
  40244c:	ff d0                	call   *%eax
  40244e:	8b 16                	mov    (%esi),%edx
  402450:	89 46 04             	mov    %eax,0x4(%esi)
  402453:	8b 42 14             	mov    0x14(%edx),%eax
  402456:	8b ce                	mov    %esi,%ecx
  402458:	ff d0                	call   *%eax
  40245a:	8b 16                	mov    (%esi),%edx
  40245c:	89 46 04             	mov    %eax,0x4(%esi)
  40245f:	8b 42 18             	mov    0x18(%edx),%eax
  402462:	8b ce                	mov    %esi,%ecx
  402464:	ff d0                	call   *%eax
  402466:	8b 16                	mov    (%esi),%edx
  402468:	89 46 04             	mov    %eax,0x4(%esi)
  40246b:	8b 42 1c             	mov    0x1c(%edx),%eax
  40246e:	8b ce                	mov    %esi,%ecx
  402470:	ff d0                	call   *%eax
  402472:	8b 16                	mov    (%esi),%edx
  402474:	89 46 04             	mov    %eax,0x4(%esi)
  402477:	8b 42 20             	mov    0x20(%edx),%eax
  40247a:	8b ce                	mov    %esi,%ecx
  40247c:	ff d0                	call   *%eax
  40247e:	8b 16                	mov    (%esi),%edx
  402480:	89 46 04             	mov    %eax,0x4(%esi)
  402483:	8b 42 24             	mov    0x24(%edx),%eax
  402486:	8b ce                	mov    %esi,%ecx
  402488:	ff d0                	call   *%eax
  40248a:	8b 16                	mov    (%esi),%edx
  40248c:	89 46 04             	mov    %eax,0x4(%esi)
  40248f:	8b 42 28             	mov    0x28(%edx),%eax
  402492:	8b ce                	mov    %esi,%ecx
  402494:	ff d0                	call   *%eax
  402496:	8b 16                	mov    (%esi),%edx
  402498:	89 46 04             	mov    %eax,0x4(%esi)
  40249b:	8b 42 2c             	mov    0x2c(%edx),%eax
  40249e:	8b ce                	mov    %esi,%ecx
  4024a0:	ff d0                	call   *%eax
  4024a2:	8b 16                	mov    (%esi),%edx
  4024a4:	89 46 04             	mov    %eax,0x4(%esi)
  4024a7:	8b 42 30             	mov    0x30(%edx),%eax
  4024aa:	8b ce                	mov    %esi,%ecx
  4024ac:	ff d0                	call   *%eax
  4024ae:	8b 16                	mov    (%esi),%edx
  4024b0:	89 46 04             	mov    %eax,0x4(%esi)
  4024b3:	8b 42 34             	mov    0x34(%edx),%eax
  4024b6:	8b ce                	mov    %esi,%ecx
  4024b8:	ff d0                	call   *%eax
  4024ba:	8b 16                	mov    (%esi),%edx
  4024bc:	89 46 04             	mov    %eax,0x4(%esi)
  4024bf:	8b 42 38             	mov    0x38(%edx),%eax
  4024c2:	8b ce                	mov    %esi,%ecx
  4024c4:	ff d0                	call   *%eax
  4024c6:	8b 16                	mov    (%esi),%edx
  4024c8:	89 46 04             	mov    %eax,0x4(%esi)
  4024cb:	8b 42 3c             	mov    0x3c(%edx),%eax
  4024ce:	8b ce                	mov    %esi,%ecx
  4024d0:	ff d0                	call   *%eax
  4024d2:	8b 16                	mov    (%esi),%edx
  4024d4:	89 46 04             	mov    %eax,0x4(%esi)
  4024d7:	8b 42 40             	mov    0x40(%edx),%eax
  4024da:	8b ce                	mov    %esi,%ecx
  4024dc:	ff d0                	call   *%eax
  4024de:	8b 16                	mov    (%esi),%edx
  4024e0:	89 46 04             	mov    %eax,0x4(%esi)
  4024e3:	8b 42 44             	mov    0x44(%edx),%eax
  4024e6:	8b ce                	mov    %esi,%ecx
  4024e8:	ff d0                	call   *%eax
  4024ea:	8b 16                	mov    (%esi),%edx
  4024ec:	89 46 04             	mov    %eax,0x4(%esi)
  4024ef:	8b ce                	mov    %esi,%ecx
  4024f1:	8b 42 48             	mov    0x48(%edx),%eax
  4024f4:	ff d0                	call   *%eax
  4024f6:	8b 16                	mov    (%esi),%edx
  4024f8:	89 46 04             	mov    %eax,0x4(%esi)
  4024fb:	8b 42 4c             	mov    0x4c(%edx),%eax
  4024fe:	8b ce                	mov    %esi,%ecx
  402500:	ff d0                	call   *%eax
  402502:	8b 16                	mov    (%esi),%edx
  402504:	89 46 04             	mov    %eax,0x4(%esi)
  402507:	8b 02                	mov    (%edx),%eax
  402509:	8b ce                	mov    %esi,%ecx
  40250b:	ff d0                	call   *%eax
  40250d:	8b 16                	mov    (%esi),%edx
  40250f:	89 46 04             	mov    %eax,0x4(%esi)
  402512:	8b 42 04             	mov    0x4(%edx),%eax
  402515:	8b ce                	mov    %esi,%ecx
  402517:	ff d0                	call   *%eax
  402519:	8b 16                	mov    (%esi),%edx
  40251b:	89 46 04             	mov    %eax,0x4(%esi)
  40251e:	8b 42 08             	mov    0x8(%edx),%eax
  402521:	8b ce                	mov    %esi,%ecx
  402523:	ff d0                	call   *%eax
  402525:	8b 16                	mov    (%esi),%edx
  402527:	89 46 04             	mov    %eax,0x4(%esi)
  40252a:	8b 42 0c             	mov    0xc(%edx),%eax
  40252d:	8b ce                	mov    %esi,%ecx
  40252f:	ff d0                	call   *%eax
  402531:	8b 16                	mov    (%esi),%edx
  402533:	89 46 04             	mov    %eax,0x4(%esi)
  402536:	8b 42 10             	mov    0x10(%edx),%eax
  402539:	8b ce                	mov    %esi,%ecx
  40253b:	ff d0                	call   *%eax
  40253d:	8b 16                	mov    (%esi),%edx
  40253f:	89 46 04             	mov    %eax,0x4(%esi)
  402542:	8b 42 14             	mov    0x14(%edx),%eax
  402545:	8b ce                	mov    %esi,%ecx
  402547:	ff d0                	call   *%eax
  402549:	8b 16                	mov    (%esi),%edx
  40254b:	89 46 04             	mov    %eax,0x4(%esi)
  40254e:	8b 42 18             	mov    0x18(%edx),%eax
  402551:	8b ce                	mov    %esi,%ecx
  402553:	ff d0                	call   *%eax
  402555:	8b 16                	mov    (%esi),%edx
  402557:	89 46 04             	mov    %eax,0x4(%esi)
  40255a:	8b 42 1c             	mov    0x1c(%edx),%eax
  40255d:	8b ce                	mov    %esi,%ecx
  40255f:	ff d0                	call   *%eax
  402561:	8b 16                	mov    (%esi),%edx
  402563:	89 46 04             	mov    %eax,0x4(%esi)
  402566:	8b 42 20             	mov    0x20(%edx),%eax
  402569:	8b ce                	mov    %esi,%ecx
  40256b:	ff d0                	call   *%eax
  40256d:	8b 16                	mov    (%esi),%edx
  40256f:	89 46 04             	mov    %eax,0x4(%esi)
  402572:	8b 42 24             	mov    0x24(%edx),%eax
  402575:	8b ce                	mov    %esi,%ecx
  402577:	ff d0                	call   *%eax
  402579:	8b 16                	mov    (%esi),%edx
  40257b:	89 46 04             	mov    %eax,0x4(%esi)
  40257e:	8b 42 28             	mov    0x28(%edx),%eax
  402581:	8b ce                	mov    %esi,%ecx
  402583:	ff d0                	call   *%eax
  402585:	8b 16                	mov    (%esi),%edx
  402587:	89 46 04             	mov    %eax,0x4(%esi)
  40258a:	8b 42 2c             	mov    0x2c(%edx),%eax
  40258d:	8b ce                	mov    %esi,%ecx
  40258f:	ff d0                	call   *%eax
  402591:	8b 16                	mov    (%esi),%edx
  402593:	89 46 04             	mov    %eax,0x4(%esi)
  402596:	8b 42 30             	mov    0x30(%edx),%eax
  402599:	8b ce                	mov    %esi,%ecx
  40259b:	ff d0                	call   *%eax
  40259d:	8b 16                	mov    (%esi),%edx
  40259f:	89 46 04             	mov    %eax,0x4(%esi)
  4025a2:	8b 42 34             	mov    0x34(%edx),%eax
  4025a5:	8b ce                	mov    %esi,%ecx
  4025a7:	ff d0                	call   *%eax
  4025a9:	8b 16                	mov    (%esi),%edx
  4025ab:	89 46 04             	mov    %eax,0x4(%esi)
  4025ae:	8b 42 38             	mov    0x38(%edx),%eax
  4025b1:	8b ce                	mov    %esi,%ecx
  4025b3:	ff d0                	call   *%eax
  4025b5:	8b 16                	mov    (%esi),%edx
  4025b7:	89 46 04             	mov    %eax,0x4(%esi)
  4025ba:	8b 42 3c             	mov    0x3c(%edx),%eax
  4025bd:	8b ce                	mov    %esi,%ecx
  4025bf:	ff d0                	call   *%eax
  4025c1:	8b 16                	mov    (%esi),%edx
  4025c3:	89 46 04             	mov    %eax,0x4(%esi)
  4025c6:	8b 42 40             	mov    0x40(%edx),%eax
  4025c9:	8b ce                	mov    %esi,%ecx
  4025cb:	ff d0                	call   *%eax
  4025cd:	8b 16                	mov    (%esi),%edx
  4025cf:	89 46 04             	mov    %eax,0x4(%esi)
  4025d2:	8b 42 44             	mov    0x44(%edx),%eax
  4025d5:	8b ce                	mov    %esi,%ecx
  4025d7:	ff d0                	call   *%eax
  4025d9:	8b 16                	mov    (%esi),%edx
  4025db:	89 46 04             	mov    %eax,0x4(%esi)
  4025de:	8b 42 48             	mov    0x48(%edx),%eax
  4025e1:	8b ce                	mov    %esi,%ecx
  4025e3:	ff d0                	call   *%eax
  4025e5:	8b 16                	mov    (%esi),%edx
  4025e7:	89 46 04             	mov    %eax,0x4(%esi)
  4025ea:	8b 42 4c             	mov    0x4c(%edx),%eax
  4025ed:	8b ce                	mov    %esi,%ecx
  4025ef:	ff d0                	call   *%eax
  4025f1:	8b 16                	mov    (%esi),%edx
  4025f3:	89 46 04             	mov    %eax,0x4(%esi)
  4025f6:	8b 02                	mov    (%edx),%eax
  4025f8:	8b ce                	mov    %esi,%ecx
  4025fa:	ff d0                	call   *%eax
  4025fc:	8b 16                	mov    (%esi),%edx
  4025fe:	89 46 04             	mov    %eax,0x4(%esi)
  402601:	8b 42 04             	mov    0x4(%edx),%eax
  402604:	8b ce                	mov    %esi,%ecx
  402606:	ff d0                	call   *%eax
  402608:	8b 16                	mov    (%esi),%edx
  40260a:	89 46 04             	mov    %eax,0x4(%esi)
  40260d:	8b 42 08             	mov    0x8(%edx),%eax
  402610:	8b ce                	mov    %esi,%ecx
  402612:	ff d0                	call   *%eax
  402614:	8b 16                	mov    (%esi),%edx
  402616:	89 46 04             	mov    %eax,0x4(%esi)
  402619:	8b 42 0c             	mov    0xc(%edx),%eax
  40261c:	8b ce                	mov    %esi,%ecx
  40261e:	ff d0                	call   *%eax
  402620:	8b 16                	mov    (%esi),%edx
  402622:	89 46 04             	mov    %eax,0x4(%esi)
  402625:	8b 42 10             	mov    0x10(%edx),%eax
  402628:	8b ce                	mov    %esi,%ecx
  40262a:	ff d0                	call   *%eax
  40262c:	8b 16                	mov    (%esi),%edx
  40262e:	89 46 04             	mov    %eax,0x4(%esi)
  402631:	8b 42 14             	mov    0x14(%edx),%eax
  402634:	8b ce                	mov    %esi,%ecx
  402636:	ff d0                	call   *%eax
  402638:	8b 16                	mov    (%esi),%edx
  40263a:	89 46 04             	mov    %eax,0x4(%esi)
  40263d:	8b 42 18             	mov    0x18(%edx),%eax
  402640:	8b ce                	mov    %esi,%ecx
  402642:	ff d0                	call   *%eax
  402644:	8b 16                	mov    (%esi),%edx
  402646:	89 46 04             	mov    %eax,0x4(%esi)
  402649:	8b 42 1c             	mov    0x1c(%edx),%eax
  40264c:	8b ce                	mov    %esi,%ecx
  40264e:	ff d0                	call   *%eax
  402650:	8b 16                	mov    (%esi),%edx
  402652:	89 46 04             	mov    %eax,0x4(%esi)
  402655:	8b 42 20             	mov    0x20(%edx),%eax
  402658:	8b ce                	mov    %esi,%ecx
  40265a:	ff d0                	call   *%eax
  40265c:	8b 16                	mov    (%esi),%edx
  40265e:	89 46 04             	mov    %eax,0x4(%esi)
  402661:	8b 42 24             	mov    0x24(%edx),%eax
  402664:	8b ce                	mov    %esi,%ecx
  402666:	ff d0                	call   *%eax
  402668:	8b 16                	mov    (%esi),%edx
  40266a:	89 46 04             	mov    %eax,0x4(%esi)
  40266d:	8b 42 28             	mov    0x28(%edx),%eax
  402670:	8b ce                	mov    %esi,%ecx
  402672:	ff d0                	call   *%eax
  402674:	8b 16                	mov    (%esi),%edx
  402676:	89 46 04             	mov    %eax,0x4(%esi)
  402679:	8b 42 2c             	mov    0x2c(%edx),%eax
  40267c:	8b ce                	mov    %esi,%ecx
  40267e:	ff d0                	call   *%eax
  402680:	8b 16                	mov    (%esi),%edx
  402682:	89 46 04             	mov    %eax,0x4(%esi)
  402685:	8b 42 30             	mov    0x30(%edx),%eax
  402688:	8b ce                	mov    %esi,%ecx
  40268a:	ff d0                	call   *%eax
  40268c:	8b 16                	mov    (%esi),%edx
  40268e:	89 46 04             	mov    %eax,0x4(%esi)
  402691:	8b 42 34             	mov    0x34(%edx),%eax
  402694:	8b ce                	mov    %esi,%ecx
  402696:	ff d0                	call   *%eax
  402698:	8b 16                	mov    (%esi),%edx
  40269a:	89 46 04             	mov    %eax,0x4(%esi)
  40269d:	8b 42 38             	mov    0x38(%edx),%eax
  4026a0:	8b ce                	mov    %esi,%ecx
  4026a2:	ff d0                	call   *%eax
  4026a4:	8b 16                	mov    (%esi),%edx
  4026a6:	89 46 04             	mov    %eax,0x4(%esi)
  4026a9:	8b 42 3c             	mov    0x3c(%edx),%eax
  4026ac:	8b ce                	mov    %esi,%ecx
  4026ae:	ff d0                	call   *%eax
  4026b0:	8b 16                	mov    (%esi),%edx
  4026b2:	89 46 04             	mov    %eax,0x4(%esi)
  4026b5:	8b 42 40             	mov    0x40(%edx),%eax
  4026b8:	8b ce                	mov    %esi,%ecx
  4026ba:	ff d0                	call   *%eax
  4026bc:	8b 16                	mov    (%esi),%edx
  4026be:	89 46 04             	mov    %eax,0x4(%esi)
  4026c1:	8b 42 44             	mov    0x44(%edx),%eax
  4026c4:	8b ce                	mov    %esi,%ecx
  4026c6:	ff d0                	call   *%eax
  4026c8:	8b 16                	mov    (%esi),%edx
  4026ca:	89 46 04             	mov    %eax,0x4(%esi)
  4026cd:	8b 42 48             	mov    0x48(%edx),%eax
  4026d0:	8b ce                	mov    %esi,%ecx
  4026d2:	ff d0                	call   *%eax
  4026d4:	8b 16                	mov    (%esi),%edx
  4026d6:	89 46 04             	mov    %eax,0x4(%esi)
  4026d9:	8b 42 4c             	mov    0x4c(%edx),%eax
  4026dc:	8b ce                	mov    %esi,%ecx
  4026de:	ff d0                	call   *%eax
  4026e0:	8b 16                	mov    (%esi),%edx
  4026e2:	89 46 04             	mov    %eax,0x4(%esi)
  4026e5:	8b 02                	mov    (%edx),%eax
  4026e7:	8b ce                	mov    %esi,%ecx
  4026e9:	ff d0                	call   *%eax
  4026eb:	8b 16                	mov    (%esi),%edx
  4026ed:	89 46 04             	mov    %eax,0x4(%esi)
  4026f0:	8b 42 04             	mov    0x4(%edx),%eax
  4026f3:	8b ce                	mov    %esi,%ecx
  4026f5:	ff d0                	call   *%eax
  4026f7:	8b 16                	mov    (%esi),%edx
  4026f9:	89 46 04             	mov    %eax,0x4(%esi)
  4026fc:	8b 42 08             	mov    0x8(%edx),%eax
  4026ff:	8b ce                	mov    %esi,%ecx
  402701:	ff d0                	call   *%eax
  402703:	8b 16                	mov    (%esi),%edx
  402705:	89 46 04             	mov    %eax,0x4(%esi)
  402708:	8b 42 0c             	mov    0xc(%edx),%eax
  40270b:	8b ce                	mov    %esi,%ecx
  40270d:	ff d0                	call   *%eax
  40270f:	8b 16                	mov    (%esi),%edx
  402711:	89 46 04             	mov    %eax,0x4(%esi)
  402714:	8b 42 10             	mov    0x10(%edx),%eax
  402717:	8b ce                	mov    %esi,%ecx
  402719:	ff d0                	call   *%eax
  40271b:	8b 16                	mov    (%esi),%edx
  40271d:	89 46 04             	mov    %eax,0x4(%esi)
  402720:	8b 42 14             	mov    0x14(%edx),%eax
  402723:	8b ce                	mov    %esi,%ecx
  402725:	ff d0                	call   *%eax
  402727:	8b 16                	mov    (%esi),%edx
  402729:	89 46 04             	mov    %eax,0x4(%esi)
  40272c:	8b 42 18             	mov    0x18(%edx),%eax
  40272f:	8b ce                	mov    %esi,%ecx
  402731:	ff d0                	call   *%eax
  402733:	89 46 04             	mov    %eax,0x4(%esi)
  402736:	8b 16                	mov    (%esi),%edx
  402738:	8b 42 1c             	mov    0x1c(%edx),%eax
  40273b:	8b ce                	mov    %esi,%ecx
  40273d:	ff d0                	call   *%eax
  40273f:	8b 16                	mov    (%esi),%edx
  402741:	89 46 04             	mov    %eax,0x4(%esi)
  402744:	8b 42 20             	mov    0x20(%edx),%eax
  402747:	8b ce                	mov    %esi,%ecx
  402749:	ff d0                	call   *%eax
  40274b:	8b 16                	mov    (%esi),%edx
  40274d:	89 46 04             	mov    %eax,0x4(%esi)
  402750:	8b 42 24             	mov    0x24(%edx),%eax
  402753:	8b ce                	mov    %esi,%ecx
  402755:	ff d0                	call   *%eax
  402757:	8b 16                	mov    (%esi),%edx
  402759:	89 46 04             	mov    %eax,0x4(%esi)
  40275c:	8b 42 28             	mov    0x28(%edx),%eax
  40275f:	8b ce                	mov    %esi,%ecx
  402761:	ff d0                	call   *%eax
  402763:	8b 16                	mov    (%esi),%edx
  402765:	89 46 04             	mov    %eax,0x4(%esi)
  402768:	8b 42 2c             	mov    0x2c(%edx),%eax
  40276b:	8b ce                	mov    %esi,%ecx
  40276d:	ff d0                	call   *%eax
  40276f:	8b 16                	mov    (%esi),%edx
  402771:	89 46 04             	mov    %eax,0x4(%esi)
  402774:	8b 42 30             	mov    0x30(%edx),%eax
  402777:	8b ce                	mov    %esi,%ecx
  402779:	ff d0                	call   *%eax
  40277b:	8b 16                	mov    (%esi),%edx
  40277d:	89 46 04             	mov    %eax,0x4(%esi)
  402780:	8b 42 34             	mov    0x34(%edx),%eax
  402783:	8b ce                	mov    %esi,%ecx
  402785:	ff d0                	call   *%eax
  402787:	8b 16                	mov    (%esi),%edx
  402789:	89 46 04             	mov    %eax,0x4(%esi)
  40278c:	8b 42 38             	mov    0x38(%edx),%eax
  40278f:	8b ce                	mov    %esi,%ecx
  402791:	ff d0                	call   *%eax
  402793:	8b 16                	mov    (%esi),%edx
  402795:	89 46 04             	mov    %eax,0x4(%esi)
  402798:	8b 42 3c             	mov    0x3c(%edx),%eax
  40279b:	8b ce                	mov    %esi,%ecx
  40279d:	ff d0                	call   *%eax
  40279f:	8b 16                	mov    (%esi),%edx
  4027a1:	89 46 04             	mov    %eax,0x4(%esi)
  4027a4:	8b 42 40             	mov    0x40(%edx),%eax
  4027a7:	8b ce                	mov    %esi,%ecx
  4027a9:	ff d0                	call   *%eax
  4027ab:	8b 16                	mov    (%esi),%edx
  4027ad:	89 46 04             	mov    %eax,0x4(%esi)
  4027b0:	8b 42 44             	mov    0x44(%edx),%eax
  4027b3:	8b ce                	mov    %esi,%ecx
  4027b5:	ff d0                	call   *%eax
  4027b7:	8b 16                	mov    (%esi),%edx
  4027b9:	89 46 04             	mov    %eax,0x4(%esi)
  4027bc:	8b 42 48             	mov    0x48(%edx),%eax
  4027bf:	8b ce                	mov    %esi,%ecx
  4027c1:	ff d0                	call   *%eax
  4027c3:	8b 16                	mov    (%esi),%edx
  4027c5:	89 46 04             	mov    %eax,0x4(%esi)
  4027c8:	8b 42 4c             	mov    0x4c(%edx),%eax
  4027cb:	8b ce                	mov    %esi,%ecx
  4027cd:	ff d0                	call   *%eax
  4027cf:	8b 16                	mov    (%esi),%edx
  4027d1:	89 46 04             	mov    %eax,0x4(%esi)
  4027d4:	8b 02                	mov    (%edx),%eax
  4027d6:	8b ce                	mov    %esi,%ecx
  4027d8:	ff d0                	call   *%eax
  4027da:	8b 16                	mov    (%esi),%edx
  4027dc:	89 46 04             	mov    %eax,0x4(%esi)
  4027df:	8b 42 04             	mov    0x4(%edx),%eax
  4027e2:	8b ce                	mov    %esi,%ecx
  4027e4:	ff d0                	call   *%eax
  4027e6:	8b 16                	mov    (%esi),%edx
  4027e8:	89 46 04             	mov    %eax,0x4(%esi)
  4027eb:	8b 42 08             	mov    0x8(%edx),%eax
  4027ee:	8b ce                	mov    %esi,%ecx
  4027f0:	ff d0                	call   *%eax
  4027f2:	8b 16                	mov    (%esi),%edx
  4027f4:	89 46 04             	mov    %eax,0x4(%esi)
  4027f7:	8b 42 0c             	mov    0xc(%edx),%eax
  4027fa:	8b ce                	mov    %esi,%ecx
  4027fc:	ff d0                	call   *%eax
  4027fe:	8b 16                	mov    (%esi),%edx
  402800:	89 46 04             	mov    %eax,0x4(%esi)
  402803:	8b 42 10             	mov    0x10(%edx),%eax
  402806:	8b ce                	mov    %esi,%ecx
  402808:	ff d0                	call   *%eax
  40280a:	8b 16                	mov    (%esi),%edx
  40280c:	89 46 04             	mov    %eax,0x4(%esi)
  40280f:	8b 42 14             	mov    0x14(%edx),%eax
  402812:	8b ce                	mov    %esi,%ecx
  402814:	ff d0                	call   *%eax
  402816:	8b 16                	mov    (%esi),%edx
  402818:	89 46 04             	mov    %eax,0x4(%esi)
  40281b:	8b 42 18             	mov    0x18(%edx),%eax
  40281e:	8b ce                	mov    %esi,%ecx
  402820:	ff d0                	call   *%eax
  402822:	8b 16                	mov    (%esi),%edx
  402824:	89 46 04             	mov    %eax,0x4(%esi)
  402827:	8b 42 1c             	mov    0x1c(%edx),%eax
  40282a:	8b ce                	mov    %esi,%ecx
  40282c:	ff d0                	call   *%eax
  40282e:	8b 16                	mov    (%esi),%edx
  402830:	89 46 04             	mov    %eax,0x4(%esi)
  402833:	8b 42 20             	mov    0x20(%edx),%eax
  402836:	8b ce                	mov    %esi,%ecx
  402838:	ff d0                	call   *%eax
  40283a:	8b 16                	mov    (%esi),%edx
  40283c:	89 46 04             	mov    %eax,0x4(%esi)
  40283f:	8b 42 24             	mov    0x24(%edx),%eax
  402842:	8b ce                	mov    %esi,%ecx
  402844:	ff d0                	call   *%eax
  402846:	8b 16                	mov    (%esi),%edx
  402848:	89 46 04             	mov    %eax,0x4(%esi)
  40284b:	8b 42 28             	mov    0x28(%edx),%eax
  40284e:	8b ce                	mov    %esi,%ecx
  402850:	ff d0                	call   *%eax
  402852:	8b 16                	mov    (%esi),%edx
  402854:	89 46 04             	mov    %eax,0x4(%esi)
  402857:	8b 42 2c             	mov    0x2c(%edx),%eax
  40285a:	8b ce                	mov    %esi,%ecx
  40285c:	ff d0                	call   *%eax
  40285e:	8b 16                	mov    (%esi),%edx
  402860:	89 46 04             	mov    %eax,0x4(%esi)
  402863:	8b 42 30             	mov    0x30(%edx),%eax
  402866:	8b ce                	mov    %esi,%ecx
  402868:	ff d0                	call   *%eax
  40286a:	8b 16                	mov    (%esi),%edx
  40286c:	89 46 04             	mov    %eax,0x4(%esi)
  40286f:	8b 42 34             	mov    0x34(%edx),%eax
  402872:	8b ce                	mov    %esi,%ecx
  402874:	ff d0                	call   *%eax
  402876:	8b 16                	mov    (%esi),%edx
  402878:	89 46 04             	mov    %eax,0x4(%esi)
  40287b:	8b 42 38             	mov    0x38(%edx),%eax
  40287e:	8b ce                	mov    %esi,%ecx
  402880:	ff d0                	call   *%eax
  402882:	8b 16                	mov    (%esi),%edx
  402884:	89 46 04             	mov    %eax,0x4(%esi)
  402887:	8b 42 3c             	mov    0x3c(%edx),%eax
  40288a:	8b ce                	mov    %esi,%ecx
  40288c:	ff d0                	call   *%eax
  40288e:	8b 16                	mov    (%esi),%edx
  402890:	89 46 04             	mov    %eax,0x4(%esi)
  402893:	8b 42 40             	mov    0x40(%edx),%eax
  402896:	8b ce                	mov    %esi,%ecx
  402898:	ff d0                	call   *%eax
  40289a:	8b 16                	mov    (%esi),%edx
  40289c:	89 46 04             	mov    %eax,0x4(%esi)
  40289f:	8b 42 44             	mov    0x44(%edx),%eax
  4028a2:	8b ce                	mov    %esi,%ecx
  4028a4:	ff d0                	call   *%eax
  4028a6:	8b 16                	mov    (%esi),%edx
  4028a8:	89 46 04             	mov    %eax,0x4(%esi)
  4028ab:	8b 42 48             	mov    0x48(%edx),%eax
  4028ae:	8b ce                	mov    %esi,%ecx
  4028b0:	ff d0                	call   *%eax
  4028b2:	8b 16                	mov    (%esi),%edx
  4028b4:	89 46 04             	mov    %eax,0x4(%esi)
  4028b7:	8b ce                	mov    %esi,%ecx
  4028b9:	8b 42 4c             	mov    0x4c(%edx),%eax
  4028bc:	ff d0                	call   *%eax
  4028be:	8b 16                	mov    (%esi),%edx
  4028c0:	89 46 04             	mov    %eax,0x4(%esi)
  4028c3:	8b 02                	mov    (%edx),%eax
  4028c5:	8b ce                	mov    %esi,%ecx
  4028c7:	ff d0                	call   *%eax
  4028c9:	8b 16                	mov    (%esi),%edx
  4028cb:	89 46 04             	mov    %eax,0x4(%esi)
  4028ce:	8b 42 04             	mov    0x4(%edx),%eax
  4028d1:	8b ce                	mov    %esi,%ecx
  4028d3:	ff d0                	call   *%eax
  4028d5:	8b 16                	mov    (%esi),%edx
  4028d7:	89 46 04             	mov    %eax,0x4(%esi)
  4028da:	8b 42 08             	mov    0x8(%edx),%eax
  4028dd:	8b ce                	mov    %esi,%ecx
  4028df:	ff d0                	call   *%eax
  4028e1:	8b 16                	mov    (%esi),%edx
  4028e3:	89 46 04             	mov    %eax,0x4(%esi)
  4028e6:	8b 42 0c             	mov    0xc(%edx),%eax
  4028e9:	8b ce                	mov    %esi,%ecx
  4028eb:	ff d0                	call   *%eax
  4028ed:	8b 16                	mov    (%esi),%edx
  4028ef:	89 46 04             	mov    %eax,0x4(%esi)
  4028f2:	8b 42 10             	mov    0x10(%edx),%eax
  4028f5:	8b ce                	mov    %esi,%ecx
  4028f7:	ff d0                	call   *%eax
  4028f9:	8b 16                	mov    (%esi),%edx
  4028fb:	89 46 04             	mov    %eax,0x4(%esi)
  4028fe:	8b 42 14             	mov    0x14(%edx),%eax
  402901:	8b ce                	mov    %esi,%ecx
  402903:	ff d0                	call   *%eax
  402905:	8b 16                	mov    (%esi),%edx
  402907:	89 46 04             	mov    %eax,0x4(%esi)
  40290a:	8b 42 18             	mov    0x18(%edx),%eax
  40290d:	8b ce                	mov    %esi,%ecx
  40290f:	ff d0                	call   *%eax
  402911:	8b 16                	mov    (%esi),%edx
  402913:	89 46 04             	mov    %eax,0x4(%esi)
  402916:	8b 42 1c             	mov    0x1c(%edx),%eax
  402919:	8b ce                	mov    %esi,%ecx
  40291b:	ff d0                	call   *%eax
  40291d:	8b 16                	mov    (%esi),%edx
  40291f:	89 46 04             	mov    %eax,0x4(%esi)
  402922:	8b 42 20             	mov    0x20(%edx),%eax
  402925:	8b ce                	mov    %esi,%ecx
  402927:	ff d0                	call   *%eax
  402929:	8b 16                	mov    (%esi),%edx
  40292b:	89 46 04             	mov    %eax,0x4(%esi)
  40292e:	8b 42 24             	mov    0x24(%edx),%eax
  402931:	8b ce                	mov    %esi,%ecx
  402933:	ff d0                	call   *%eax
  402935:	8b 16                	mov    (%esi),%edx
  402937:	89 46 04             	mov    %eax,0x4(%esi)
  40293a:	8b 42 28             	mov    0x28(%edx),%eax
  40293d:	8b ce                	mov    %esi,%ecx
  40293f:	ff d0                	call   *%eax
  402941:	8b 16                	mov    (%esi),%edx
  402943:	89 46 04             	mov    %eax,0x4(%esi)
  402946:	8b 42 2c             	mov    0x2c(%edx),%eax
  402949:	8b ce                	mov    %esi,%ecx
  40294b:	ff d0                	call   *%eax
  40294d:	8b 16                	mov    (%esi),%edx
  40294f:	89 46 04             	mov    %eax,0x4(%esi)
  402952:	8b 42 30             	mov    0x30(%edx),%eax
  402955:	8b ce                	mov    %esi,%ecx
  402957:	ff d0                	call   *%eax
  402959:	8b 16                	mov    (%esi),%edx
  40295b:	89 46 04             	mov    %eax,0x4(%esi)
  40295e:	8b 42 34             	mov    0x34(%edx),%eax
  402961:	8b ce                	mov    %esi,%ecx
  402963:	ff d0                	call   *%eax
  402965:	8b 16                	mov    (%esi),%edx
  402967:	89 46 04             	mov    %eax,0x4(%esi)
  40296a:	8b 42 38             	mov    0x38(%edx),%eax
  40296d:	8b ce                	mov    %esi,%ecx
  40296f:	ff d0                	call   *%eax
  402971:	8b 16                	mov    (%esi),%edx
  402973:	89 46 04             	mov    %eax,0x4(%esi)
  402976:	8b 42 3c             	mov    0x3c(%edx),%eax
  402979:	8b ce                	mov    %esi,%ecx
  40297b:	ff d0                	call   *%eax
  40297d:	8b 16                	mov    (%esi),%edx
  40297f:	89 46 04             	mov    %eax,0x4(%esi)
  402982:	8b 42 40             	mov    0x40(%edx),%eax
  402985:	8b ce                	mov    %esi,%ecx
  402987:	ff d0                	call   *%eax
  402989:	8b 16                	mov    (%esi),%edx
  40298b:	89 46 04             	mov    %eax,0x4(%esi)
  40298e:	8b 42 44             	mov    0x44(%edx),%eax
  402991:	8b ce                	mov    %esi,%ecx
  402993:	ff d0                	call   *%eax
  402995:	8b 16                	mov    (%esi),%edx
  402997:	89 46 04             	mov    %eax,0x4(%esi)
  40299a:	8b 42 48             	mov    0x48(%edx),%eax
  40299d:	8b ce                	mov    %esi,%ecx
  40299f:	ff d0                	call   *%eax
  4029a1:	8b 16                	mov    (%esi),%edx
  4029a3:	89 46 04             	mov    %eax,0x4(%esi)
  4029a6:	8b 42 4c             	mov    0x4c(%edx),%eax
  4029a9:	8b ce                	mov    %esi,%ecx
  4029ab:	ff d0                	call   *%eax
  4029ad:	8b 16                	mov    (%esi),%edx
  4029af:	89 46 04             	mov    %eax,0x4(%esi)
  4029b2:	8b 02                	mov    (%edx),%eax
  4029b4:	8b ce                	mov    %esi,%ecx
  4029b6:	ff d0                	call   *%eax
  4029b8:	8b 16                	mov    (%esi),%edx
  4029ba:	89 46 04             	mov    %eax,0x4(%esi)
  4029bd:	8b 42 04             	mov    0x4(%edx),%eax
  4029c0:	8b ce                	mov    %esi,%ecx
  4029c2:	ff d0                	call   *%eax
  4029c4:	8b 16                	mov    (%esi),%edx
  4029c6:	89 46 04             	mov    %eax,0x4(%esi)
  4029c9:	8b 42 08             	mov    0x8(%edx),%eax
  4029cc:	8b ce                	mov    %esi,%ecx
  4029ce:	ff d0                	call   *%eax
  4029d0:	8b 16                	mov    (%esi),%edx
  4029d2:	89 46 04             	mov    %eax,0x4(%esi)
  4029d5:	8b 42 0c             	mov    0xc(%edx),%eax
  4029d8:	8b ce                	mov    %esi,%ecx
  4029da:	ff d0                	call   *%eax
  4029dc:	8b 16                	mov    (%esi),%edx
  4029de:	89 46 04             	mov    %eax,0x4(%esi)
  4029e1:	8b 42 10             	mov    0x10(%edx),%eax
  4029e4:	8b ce                	mov    %esi,%ecx
  4029e6:	ff d0                	call   *%eax
  4029e8:	8b 16                	mov    (%esi),%edx
  4029ea:	89 46 04             	mov    %eax,0x4(%esi)
  4029ed:	8b 42 14             	mov    0x14(%edx),%eax
  4029f0:	8b ce                	mov    %esi,%ecx
  4029f2:	ff d0                	call   *%eax
  4029f4:	8b 16                	mov    (%esi),%edx
  4029f6:	89 46 04             	mov    %eax,0x4(%esi)
  4029f9:	8b 42 18             	mov    0x18(%edx),%eax
  4029fc:	8b ce                	mov    %esi,%ecx
  4029fe:	ff d0                	call   *%eax
  402a00:	8b 16                	mov    (%esi),%edx
  402a02:	89 46 04             	mov    %eax,0x4(%esi)
  402a05:	8b 42 1c             	mov    0x1c(%edx),%eax
  402a08:	8b ce                	mov    %esi,%ecx
  402a0a:	ff d0                	call   *%eax
  402a0c:	8b 16                	mov    (%esi),%edx
  402a0e:	89 46 04             	mov    %eax,0x4(%esi)
  402a11:	8b 42 20             	mov    0x20(%edx),%eax
  402a14:	8b ce                	mov    %esi,%ecx
  402a16:	ff d0                	call   *%eax
  402a18:	8b 16                	mov    (%esi),%edx
  402a1a:	89 46 04             	mov    %eax,0x4(%esi)
  402a1d:	8b 42 24             	mov    0x24(%edx),%eax
  402a20:	8b ce                	mov    %esi,%ecx
  402a22:	ff d0                	call   *%eax
  402a24:	8b 16                	mov    (%esi),%edx
  402a26:	89 46 04             	mov    %eax,0x4(%esi)
  402a29:	8b 42 28             	mov    0x28(%edx),%eax
  402a2c:	8b ce                	mov    %esi,%ecx
  402a2e:	ff d0                	call   *%eax
  402a30:	8b 16                	mov    (%esi),%edx
  402a32:	89 46 04             	mov    %eax,0x4(%esi)
  402a35:	8b 42 2c             	mov    0x2c(%edx),%eax
  402a38:	8b ce                	mov    %esi,%ecx
  402a3a:	ff d0                	call   *%eax
  402a3c:	8b 16                	mov    (%esi),%edx
  402a3e:	89 46 04             	mov    %eax,0x4(%esi)
  402a41:	8b 42 30             	mov    0x30(%edx),%eax
  402a44:	8b ce                	mov    %esi,%ecx
  402a46:	ff d0                	call   *%eax
  402a48:	8b 16                	mov    (%esi),%edx
  402a4a:	89 46 04             	mov    %eax,0x4(%esi)
  402a4d:	8b 42 34             	mov    0x34(%edx),%eax
  402a50:	8b ce                	mov    %esi,%ecx
  402a52:	ff d0                	call   *%eax
  402a54:	8b 16                	mov    (%esi),%edx
  402a56:	89 46 04             	mov    %eax,0x4(%esi)
  402a59:	8b 42 38             	mov    0x38(%edx),%eax
  402a5c:	8b ce                	mov    %esi,%ecx
  402a5e:	ff d0                	call   *%eax
  402a60:	8b 16                	mov    (%esi),%edx
  402a62:	89 46 04             	mov    %eax,0x4(%esi)
  402a65:	8b 42 3c             	mov    0x3c(%edx),%eax
  402a68:	8b ce                	mov    %esi,%ecx
  402a6a:	ff d0                	call   *%eax
  402a6c:	8b 16                	mov    (%esi),%edx
  402a6e:	89 46 04             	mov    %eax,0x4(%esi)
  402a71:	8b 42 40             	mov    0x40(%edx),%eax
  402a74:	8b ce                	mov    %esi,%ecx
  402a76:	ff d0                	call   *%eax
  402a78:	8b 16                	mov    (%esi),%edx
  402a7a:	89 46 04             	mov    %eax,0x4(%esi)
  402a7d:	8b 42 44             	mov    0x44(%edx),%eax
  402a80:	8b ce                	mov    %esi,%ecx
  402a82:	ff d0                	call   *%eax
  402a84:	8b 16                	mov    (%esi),%edx
  402a86:	89 46 04             	mov    %eax,0x4(%esi)
  402a89:	8b 42 48             	mov    0x48(%edx),%eax
  402a8c:	8b ce                	mov    %esi,%ecx
  402a8e:	ff d0                	call   *%eax
  402a90:	8b 16                	mov    (%esi),%edx
  402a92:	89 46 04             	mov    %eax,0x4(%esi)
  402a95:	8b 42 4c             	mov    0x4c(%edx),%eax
  402a98:	8b ce                	mov    %esi,%ecx
  402a9a:	ff d0                	call   *%eax
  402a9c:	8b 16                	mov    (%esi),%edx
  402a9e:	89 46 04             	mov    %eax,0x4(%esi)
  402aa1:	8b 02                	mov    (%edx),%eax
  402aa3:	8b ce                	mov    %esi,%ecx
  402aa5:	ff d0                	call   *%eax
  402aa7:	8b 16                	mov    (%esi),%edx
  402aa9:	89 46 04             	mov    %eax,0x4(%esi)
  402aac:	8b 42 04             	mov    0x4(%edx),%eax
  402aaf:	8b ce                	mov    %esi,%ecx
  402ab1:	ff d0                	call   *%eax
  402ab3:	8b 16                	mov    (%esi),%edx
  402ab5:	89 46 04             	mov    %eax,0x4(%esi)
  402ab8:	8b 42 08             	mov    0x8(%edx),%eax
  402abb:	8b ce                	mov    %esi,%ecx
  402abd:	ff d0                	call   *%eax
  402abf:	8b 16                	mov    (%esi),%edx
  402ac1:	89 46 04             	mov    %eax,0x4(%esi)
  402ac4:	8b 42 0c             	mov    0xc(%edx),%eax
  402ac7:	8b ce                	mov    %esi,%ecx
  402ac9:	ff d0                	call   *%eax
  402acb:	8b 16                	mov    (%esi),%edx
  402acd:	89 46 04             	mov    %eax,0x4(%esi)
  402ad0:	8b 42 10             	mov    0x10(%edx),%eax
  402ad3:	8b ce                	mov    %esi,%ecx
  402ad5:	ff d0                	call   *%eax
  402ad7:	8b 16                	mov    (%esi),%edx
  402ad9:	89 46 04             	mov    %eax,0x4(%esi)
  402adc:	8b 42 14             	mov    0x14(%edx),%eax
  402adf:	8b ce                	mov    %esi,%ecx
  402ae1:	ff d0                	call   *%eax
  402ae3:	8b 16                	mov    (%esi),%edx
  402ae5:	89 46 04             	mov    %eax,0x4(%esi)
  402ae8:	8b 42 18             	mov    0x18(%edx),%eax
  402aeb:	8b ce                	mov    %esi,%ecx
  402aed:	ff d0                	call   *%eax
  402aef:	8b 16                	mov    (%esi),%edx
  402af1:	89 46 04             	mov    %eax,0x4(%esi)
  402af4:	8b 42 1c             	mov    0x1c(%edx),%eax
  402af7:	8b ce                	mov    %esi,%ecx
  402af9:	ff d0                	call   *%eax
  402afb:	89 46 04             	mov    %eax,0x4(%esi)
  402afe:	8b 16                	mov    (%esi),%edx
  402b00:	8b 42 20             	mov    0x20(%edx),%eax
  402b03:	8b ce                	mov    %esi,%ecx
  402b05:	ff d0                	call   *%eax
  402b07:	8b 16                	mov    (%esi),%edx
  402b09:	89 46 04             	mov    %eax,0x4(%esi)
  402b0c:	8b 42 24             	mov    0x24(%edx),%eax
  402b0f:	8b ce                	mov    %esi,%ecx
  402b11:	ff d0                	call   *%eax
  402b13:	8b 16                	mov    (%esi),%edx
  402b15:	89 46 04             	mov    %eax,0x4(%esi)
  402b18:	8b 42 28             	mov    0x28(%edx),%eax
  402b1b:	8b ce                	mov    %esi,%ecx
  402b1d:	ff d0                	call   *%eax
  402b1f:	8b 16                	mov    (%esi),%edx
  402b21:	89 46 04             	mov    %eax,0x4(%esi)
  402b24:	8b 42 2c             	mov    0x2c(%edx),%eax
  402b27:	8b ce                	mov    %esi,%ecx
  402b29:	ff d0                	call   *%eax
  402b2b:	8b 16                	mov    (%esi),%edx
  402b2d:	89 46 04             	mov    %eax,0x4(%esi)
  402b30:	8b 42 30             	mov    0x30(%edx),%eax
  402b33:	8b ce                	mov    %esi,%ecx
  402b35:	ff d0                	call   *%eax
  402b37:	8b 16                	mov    (%esi),%edx
  402b39:	89 46 04             	mov    %eax,0x4(%esi)
  402b3c:	8b 42 34             	mov    0x34(%edx),%eax
  402b3f:	8b ce                	mov    %esi,%ecx
  402b41:	ff d0                	call   *%eax
  402b43:	8b 16                	mov    (%esi),%edx
  402b45:	89 46 04             	mov    %eax,0x4(%esi)
  402b48:	8b 42 38             	mov    0x38(%edx),%eax
  402b4b:	8b ce                	mov    %esi,%ecx
  402b4d:	ff d0                	call   *%eax
  402b4f:	8b 16                	mov    (%esi),%edx
  402b51:	89 46 04             	mov    %eax,0x4(%esi)
  402b54:	8b 42 3c             	mov    0x3c(%edx),%eax
  402b57:	8b ce                	mov    %esi,%ecx
  402b59:	ff d0                	call   *%eax
  402b5b:	8b 16                	mov    (%esi),%edx
  402b5d:	89 46 04             	mov    %eax,0x4(%esi)
  402b60:	8b 42 40             	mov    0x40(%edx),%eax
  402b63:	8b ce                	mov    %esi,%ecx
  402b65:	ff d0                	call   *%eax
  402b67:	8b 16                	mov    (%esi),%edx
  402b69:	89 46 04             	mov    %eax,0x4(%esi)
  402b6c:	8b 42 44             	mov    0x44(%edx),%eax
  402b6f:	8b ce                	mov    %esi,%ecx
  402b71:	ff d0                	call   *%eax
  402b73:	8b 16                	mov    (%esi),%edx
  402b75:	89 46 04             	mov    %eax,0x4(%esi)
  402b78:	8b 42 48             	mov    0x48(%edx),%eax
  402b7b:	8b ce                	mov    %esi,%ecx
  402b7d:	ff d0                	call   *%eax
  402b7f:	8b 16                	mov    (%esi),%edx
  402b81:	89 46 04             	mov    %eax,0x4(%esi)
  402b84:	8b 42 4c             	mov    0x4c(%edx),%eax
  402b87:	8b ce                	mov    %esi,%ecx
  402b89:	ff d0                	call   *%eax
  402b8b:	8b 16                	mov    (%esi),%edx
  402b8d:	89 46 04             	mov    %eax,0x4(%esi)
  402b90:	8b 02                	mov    (%edx),%eax
  402b92:	8b ce                	mov    %esi,%ecx
  402b94:	ff d0                	call   *%eax
  402b96:	8b 16                	mov    (%esi),%edx
  402b98:	89 46 04             	mov    %eax,0x4(%esi)
  402b9b:	8b 42 04             	mov    0x4(%edx),%eax
  402b9e:	8b ce                	mov    %esi,%ecx
  402ba0:	ff d0                	call   *%eax
  402ba2:	8b 16                	mov    (%esi),%edx
  402ba4:	89 46 04             	mov    %eax,0x4(%esi)
  402ba7:	8b 42 08             	mov    0x8(%edx),%eax
  402baa:	8b ce                	mov    %esi,%ecx
  402bac:	ff d0                	call   *%eax
  402bae:	8b 16                	mov    (%esi),%edx
  402bb0:	89 46 04             	mov    %eax,0x4(%esi)
  402bb3:	8b 42 0c             	mov    0xc(%edx),%eax
  402bb6:	8b ce                	mov    %esi,%ecx
  402bb8:	ff d0                	call   *%eax
  402bba:	8b 16                	mov    (%esi),%edx
  402bbc:	89 46 04             	mov    %eax,0x4(%esi)
  402bbf:	8b 42 10             	mov    0x10(%edx),%eax
  402bc2:	8b ce                	mov    %esi,%ecx
  402bc4:	ff d0                	call   *%eax
  402bc6:	8b 16                	mov    (%esi),%edx
  402bc8:	89 46 04             	mov    %eax,0x4(%esi)
  402bcb:	8b 42 14             	mov    0x14(%edx),%eax
  402bce:	8b ce                	mov    %esi,%ecx
  402bd0:	ff d0                	call   *%eax
  402bd2:	8b 16                	mov    (%esi),%edx
  402bd4:	89 46 04             	mov    %eax,0x4(%esi)
  402bd7:	8b 42 18             	mov    0x18(%edx),%eax
  402bda:	8b ce                	mov    %esi,%ecx
  402bdc:	ff d0                	call   *%eax
  402bde:	8b 16                	mov    (%esi),%edx
  402be0:	89 46 04             	mov    %eax,0x4(%esi)
  402be3:	8b 42 1c             	mov    0x1c(%edx),%eax
  402be6:	8b ce                	mov    %esi,%ecx
  402be8:	ff d0                	call   *%eax
  402bea:	8b 16                	mov    (%esi),%edx
  402bec:	89 46 04             	mov    %eax,0x4(%esi)
  402bef:	8b 42 20             	mov    0x20(%edx),%eax
  402bf2:	8b ce                	mov    %esi,%ecx
  402bf4:	ff d0                	call   *%eax
  402bf6:	8b 16                	mov    (%esi),%edx
  402bf8:	89 46 04             	mov    %eax,0x4(%esi)
  402bfb:	8b 42 24             	mov    0x24(%edx),%eax
  402bfe:	8b ce                	mov    %esi,%ecx
  402c00:	ff d0                	call   *%eax
  402c02:	8b 16                	mov    (%esi),%edx
  402c04:	89 46 04             	mov    %eax,0x4(%esi)
  402c07:	8b 42 28             	mov    0x28(%edx),%eax
  402c0a:	8b ce                	mov    %esi,%ecx
  402c0c:	ff d0                	call   *%eax
  402c0e:	8b 16                	mov    (%esi),%edx
  402c10:	89 46 04             	mov    %eax,0x4(%esi)
  402c13:	8b 42 2c             	mov    0x2c(%edx),%eax
  402c16:	8b ce                	mov    %esi,%ecx
  402c18:	ff d0                	call   *%eax
  402c1a:	8b 16                	mov    (%esi),%edx
  402c1c:	89 46 04             	mov    %eax,0x4(%esi)
  402c1f:	8b 42 30             	mov    0x30(%edx),%eax
  402c22:	8b ce                	mov    %esi,%ecx
  402c24:	ff d0                	call   *%eax
  402c26:	8b 16                	mov    (%esi),%edx
  402c28:	89 46 04             	mov    %eax,0x4(%esi)
  402c2b:	8b 42 34             	mov    0x34(%edx),%eax
  402c2e:	8b ce                	mov    %esi,%ecx
  402c30:	ff d0                	call   *%eax
  402c32:	8b 16                	mov    (%esi),%edx
  402c34:	89 46 04             	mov    %eax,0x4(%esi)
  402c37:	8b 42 38             	mov    0x38(%edx),%eax
  402c3a:	8b ce                	mov    %esi,%ecx
  402c3c:	ff d0                	call   *%eax
  402c3e:	8b 16                	mov    (%esi),%edx
  402c40:	89 46 04             	mov    %eax,0x4(%esi)
  402c43:	8b 42 3c             	mov    0x3c(%edx),%eax
  402c46:	8b ce                	mov    %esi,%ecx
  402c48:	ff d0                	call   *%eax
  402c4a:	8b 16                	mov    (%esi),%edx
  402c4c:	89 46 04             	mov    %eax,0x4(%esi)
  402c4f:	8b 42 40             	mov    0x40(%edx),%eax
  402c52:	8b ce                	mov    %esi,%ecx
  402c54:	ff d0                	call   *%eax
  402c56:	8b 16                	mov    (%esi),%edx
  402c58:	89 46 04             	mov    %eax,0x4(%esi)
  402c5b:	8b 42 44             	mov    0x44(%edx),%eax
  402c5e:	8b ce                	mov    %esi,%ecx
  402c60:	ff d0                	call   *%eax
  402c62:	8b 16                	mov    (%esi),%edx
  402c64:	89 46 04             	mov    %eax,0x4(%esi)
  402c67:	8b 42 48             	mov    0x48(%edx),%eax
  402c6a:	8b ce                	mov    %esi,%ecx
  402c6c:	ff d0                	call   *%eax
  402c6e:	8b 16                	mov    (%esi),%edx
  402c70:	89 46 04             	mov    %eax,0x4(%esi)
  402c73:	8b 42 4c             	mov    0x4c(%edx),%eax
  402c76:	8b ce                	mov    %esi,%ecx
  402c78:	ff d0                	call   *%eax
  402c7a:	8b 16                	mov    (%esi),%edx
  402c7c:	89 46 04             	mov    %eax,0x4(%esi)
  402c7f:	8b ce                	mov    %esi,%ecx
  402c81:	8b 02                	mov    (%edx),%eax
  402c83:	ff d0                	call   *%eax
  402c85:	8b 16                	mov    (%esi),%edx
  402c87:	89 46 04             	mov    %eax,0x4(%esi)
  402c8a:	8b 42 04             	mov    0x4(%edx),%eax
  402c8d:	8b ce                	mov    %esi,%ecx
  402c8f:	ff d0                	call   *%eax
  402c91:	8b 16                	mov    (%esi),%edx
  402c93:	89 46 04             	mov    %eax,0x4(%esi)
  402c96:	8b 42 08             	mov    0x8(%edx),%eax
  402c99:	8b ce                	mov    %esi,%ecx
  402c9b:	ff d0                	call   *%eax
  402c9d:	8b 16                	mov    (%esi),%edx
  402c9f:	89 46 04             	mov    %eax,0x4(%esi)
  402ca2:	8b 42 0c             	mov    0xc(%edx),%eax
  402ca5:	8b ce                	mov    %esi,%ecx
  402ca7:	ff d0                	call   *%eax
  402ca9:	8b 16                	mov    (%esi),%edx
  402cab:	89 46 04             	mov    %eax,0x4(%esi)
  402cae:	8b 42 10             	mov    0x10(%edx),%eax
  402cb1:	8b ce                	mov    %esi,%ecx
  402cb3:	ff d0                	call   *%eax
  402cb5:	8b 16                	mov    (%esi),%edx
  402cb7:	89 46 04             	mov    %eax,0x4(%esi)
  402cba:	8b 42 14             	mov    0x14(%edx),%eax
  402cbd:	8b ce                	mov    %esi,%ecx
  402cbf:	ff d0                	call   *%eax
  402cc1:	8b 16                	mov    (%esi),%edx
  402cc3:	89 46 04             	mov    %eax,0x4(%esi)
  402cc6:	8b 42 18             	mov    0x18(%edx),%eax
  402cc9:	8b ce                	mov    %esi,%ecx
  402ccb:	ff d0                	call   *%eax
  402ccd:	8b 16                	mov    (%esi),%edx
  402ccf:	89 46 04             	mov    %eax,0x4(%esi)
  402cd2:	8b 42 1c             	mov    0x1c(%edx),%eax
  402cd5:	8b ce                	mov    %esi,%ecx
  402cd7:	ff d0                	call   *%eax
  402cd9:	8b 16                	mov    (%esi),%edx
  402cdb:	89 46 04             	mov    %eax,0x4(%esi)
  402cde:	8b 42 20             	mov    0x20(%edx),%eax
  402ce1:	8b ce                	mov    %esi,%ecx
  402ce3:	ff d0                	call   *%eax
  402ce5:	8b 16                	mov    (%esi),%edx
  402ce7:	89 46 04             	mov    %eax,0x4(%esi)
  402cea:	8b 42 24             	mov    0x24(%edx),%eax
  402ced:	8b ce                	mov    %esi,%ecx
  402cef:	ff d0                	call   *%eax
  402cf1:	8b 16                	mov    (%esi),%edx
  402cf3:	89 46 04             	mov    %eax,0x4(%esi)
  402cf6:	8b 42 28             	mov    0x28(%edx),%eax
  402cf9:	8b ce                	mov    %esi,%ecx
  402cfb:	ff d0                	call   *%eax
  402cfd:	8b 16                	mov    (%esi),%edx
  402cff:	89 46 04             	mov    %eax,0x4(%esi)
  402d02:	8b 42 2c             	mov    0x2c(%edx),%eax
  402d05:	8b ce                	mov    %esi,%ecx
  402d07:	ff d0                	call   *%eax
  402d09:	8b 16                	mov    (%esi),%edx
  402d0b:	89 46 04             	mov    %eax,0x4(%esi)
  402d0e:	8b 42 30             	mov    0x30(%edx),%eax
  402d11:	8b ce                	mov    %esi,%ecx
  402d13:	ff d0                	call   *%eax
  402d15:	8b 16                	mov    (%esi),%edx
  402d17:	89 46 04             	mov    %eax,0x4(%esi)
  402d1a:	8b 42 34             	mov    0x34(%edx),%eax
  402d1d:	8b ce                	mov    %esi,%ecx
  402d1f:	ff d0                	call   *%eax
  402d21:	8b 16                	mov    (%esi),%edx
  402d23:	89 46 04             	mov    %eax,0x4(%esi)
  402d26:	8b 42 38             	mov    0x38(%edx),%eax
  402d29:	8b ce                	mov    %esi,%ecx
  402d2b:	ff d0                	call   *%eax
  402d2d:	8b 16                	mov    (%esi),%edx
  402d2f:	89 46 04             	mov    %eax,0x4(%esi)
  402d32:	8b 42 3c             	mov    0x3c(%edx),%eax
  402d35:	8b ce                	mov    %esi,%ecx
  402d37:	ff d0                	call   *%eax
  402d39:	8b 16                	mov    (%esi),%edx
  402d3b:	89 46 04             	mov    %eax,0x4(%esi)
  402d3e:	8b 42 40             	mov    0x40(%edx),%eax
  402d41:	8b ce                	mov    %esi,%ecx
  402d43:	ff d0                	call   *%eax
  402d45:	8b 16                	mov    (%esi),%edx
  402d47:	89 46 04             	mov    %eax,0x4(%esi)
  402d4a:	8b 42 44             	mov    0x44(%edx),%eax
  402d4d:	8b ce                	mov    %esi,%ecx
  402d4f:	ff d0                	call   *%eax
  402d51:	8b 16                	mov    (%esi),%edx
  402d53:	89 46 04             	mov    %eax,0x4(%esi)
  402d56:	8b 42 48             	mov    0x48(%edx),%eax
  402d59:	8b ce                	mov    %esi,%ecx
  402d5b:	ff d0                	call   *%eax
  402d5d:	8b 16                	mov    (%esi),%edx
  402d5f:	89 46 04             	mov    %eax,0x4(%esi)
  402d62:	8b 42 4c             	mov    0x4c(%edx),%eax
  402d65:	8b ce                	mov    %esi,%ecx
  402d67:	ff d0                	call   *%eax
  402d69:	8b 16                	mov    (%esi),%edx
  402d6b:	89 46 04             	mov    %eax,0x4(%esi)
  402d6e:	8b 02                	mov    (%edx),%eax
  402d70:	8b ce                	mov    %esi,%ecx
  402d72:	ff d0                	call   *%eax
  402d74:	8b 16                	mov    (%esi),%edx
  402d76:	89 46 04             	mov    %eax,0x4(%esi)
  402d79:	8b 42 04             	mov    0x4(%edx),%eax
  402d7c:	8b ce                	mov    %esi,%ecx
  402d7e:	ff d0                	call   *%eax
  402d80:	8b 16                	mov    (%esi),%edx
  402d82:	89 46 04             	mov    %eax,0x4(%esi)
  402d85:	8b 42 08             	mov    0x8(%edx),%eax
  402d88:	8b ce                	mov    %esi,%ecx
  402d8a:	ff d0                	call   *%eax
  402d8c:	8b 16                	mov    (%esi),%edx
  402d8e:	89 46 04             	mov    %eax,0x4(%esi)
  402d91:	8b 42 0c             	mov    0xc(%edx),%eax
  402d94:	8b ce                	mov    %esi,%ecx
  402d96:	ff d0                	call   *%eax
  402d98:	8b 16                	mov    (%esi),%edx
  402d9a:	89 46 04             	mov    %eax,0x4(%esi)
  402d9d:	8b 42 10             	mov    0x10(%edx),%eax
  402da0:	8b ce                	mov    %esi,%ecx
  402da2:	ff d0                	call   *%eax
  402da4:	8b 16                	mov    (%esi),%edx
  402da6:	89 46 04             	mov    %eax,0x4(%esi)
  402da9:	8b 42 14             	mov    0x14(%edx),%eax
  402dac:	8b ce                	mov    %esi,%ecx
  402dae:	ff d0                	call   *%eax
  402db0:	8b 16                	mov    (%esi),%edx
  402db2:	89 46 04             	mov    %eax,0x4(%esi)
  402db5:	8b 42 18             	mov    0x18(%edx),%eax
  402db8:	8b ce                	mov    %esi,%ecx
  402dba:	ff d0                	call   *%eax
  402dbc:	8b 16                	mov    (%esi),%edx
  402dbe:	89 46 04             	mov    %eax,0x4(%esi)
  402dc1:	8b 42 1c             	mov    0x1c(%edx),%eax
  402dc4:	8b ce                	mov    %esi,%ecx
  402dc6:	ff d0                	call   *%eax
  402dc8:	8b 16                	mov    (%esi),%edx
  402dca:	89 46 04             	mov    %eax,0x4(%esi)
  402dcd:	8b 42 20             	mov    0x20(%edx),%eax
  402dd0:	8b ce                	mov    %esi,%ecx
  402dd2:	ff d0                	call   *%eax
  402dd4:	8b 16                	mov    (%esi),%edx
  402dd6:	89 46 04             	mov    %eax,0x4(%esi)
  402dd9:	8b 42 24             	mov    0x24(%edx),%eax
  402ddc:	8b ce                	mov    %esi,%ecx
  402dde:	ff d0                	call   *%eax
  402de0:	8b 16                	mov    (%esi),%edx
  402de2:	89 46 04             	mov    %eax,0x4(%esi)
  402de5:	8b 42 28             	mov    0x28(%edx),%eax
  402de8:	8b ce                	mov    %esi,%ecx
  402dea:	ff d0                	call   *%eax
  402dec:	8b 16                	mov    (%esi),%edx
  402dee:	89 46 04             	mov    %eax,0x4(%esi)
  402df1:	8b 42 2c             	mov    0x2c(%edx),%eax
  402df4:	8b ce                	mov    %esi,%ecx
  402df6:	ff d0                	call   *%eax
  402df8:	8b 16                	mov    (%esi),%edx
  402dfa:	89 46 04             	mov    %eax,0x4(%esi)
  402dfd:	8b 42 30             	mov    0x30(%edx),%eax
  402e00:	8b ce                	mov    %esi,%ecx
  402e02:	ff d0                	call   *%eax
  402e04:	8b 16                	mov    (%esi),%edx
  402e06:	89 46 04             	mov    %eax,0x4(%esi)
  402e09:	8b 42 34             	mov    0x34(%edx),%eax
  402e0c:	8b ce                	mov    %esi,%ecx
  402e0e:	ff d0                	call   *%eax
  402e10:	8b 16                	mov    (%esi),%edx
  402e12:	89 46 04             	mov    %eax,0x4(%esi)
  402e15:	8b 42 38             	mov    0x38(%edx),%eax
  402e18:	8b ce                	mov    %esi,%ecx
  402e1a:	ff d0                	call   *%eax
  402e1c:	8b 16                	mov    (%esi),%edx
  402e1e:	89 46 04             	mov    %eax,0x4(%esi)
  402e21:	8b 42 3c             	mov    0x3c(%edx),%eax
  402e24:	8b ce                	mov    %esi,%ecx
  402e26:	ff d0                	call   *%eax
  402e28:	8b 16                	mov    (%esi),%edx
  402e2a:	89 46 04             	mov    %eax,0x4(%esi)
  402e2d:	8b 42 40             	mov    0x40(%edx),%eax
  402e30:	8b ce                	mov    %esi,%ecx
  402e32:	ff d0                	call   *%eax
  402e34:	8b 16                	mov    (%esi),%edx
  402e36:	89 46 04             	mov    %eax,0x4(%esi)
  402e39:	8b 42 44             	mov    0x44(%edx),%eax
  402e3c:	8b ce                	mov    %esi,%ecx
  402e3e:	ff d0                	call   *%eax
  402e40:	8b 16                	mov    (%esi),%edx
  402e42:	89 46 04             	mov    %eax,0x4(%esi)
  402e45:	8b 42 48             	mov    0x48(%edx),%eax
  402e48:	8b ce                	mov    %esi,%ecx
  402e4a:	ff d0                	call   *%eax
  402e4c:	8b 16                	mov    (%esi),%edx
  402e4e:	89 46 04             	mov    %eax,0x4(%esi)
  402e51:	8b 42 4c             	mov    0x4c(%edx),%eax
  402e54:	8b ce                	mov    %esi,%ecx
  402e56:	ff d0                	call   *%eax
  402e58:	8b 16                	mov    (%esi),%edx
  402e5a:	89 46 04             	mov    %eax,0x4(%esi)
  402e5d:	8b 02                	mov    (%edx),%eax
  402e5f:	8b ce                	mov    %esi,%ecx
  402e61:	ff d0                	call   *%eax
  402e63:	8b 16                	mov    (%esi),%edx
  402e65:	89 46 04             	mov    %eax,0x4(%esi)
  402e68:	8b 42 04             	mov    0x4(%edx),%eax
  402e6b:	8b ce                	mov    %esi,%ecx
  402e6d:	ff d0                	call   *%eax
  402e6f:	8b 16                	mov    (%esi),%edx
  402e71:	89 46 04             	mov    %eax,0x4(%esi)
  402e74:	8b 42 08             	mov    0x8(%edx),%eax
  402e77:	8b ce                	mov    %esi,%ecx
  402e79:	ff d0                	call   *%eax
  402e7b:	8b 16                	mov    (%esi),%edx
  402e7d:	89 46 04             	mov    %eax,0x4(%esi)
  402e80:	8b 42 0c             	mov    0xc(%edx),%eax
  402e83:	8b ce                	mov    %esi,%ecx
  402e85:	ff d0                	call   *%eax
  402e87:	8b 16                	mov    (%esi),%edx
  402e89:	89 46 04             	mov    %eax,0x4(%esi)
  402e8c:	8b 42 10             	mov    0x10(%edx),%eax
  402e8f:	8b ce                	mov    %esi,%ecx
  402e91:	ff d0                	call   *%eax
  402e93:	8b 16                	mov    (%esi),%edx
  402e95:	89 46 04             	mov    %eax,0x4(%esi)
  402e98:	8b 42 14             	mov    0x14(%edx),%eax
  402e9b:	8b ce                	mov    %esi,%ecx
  402e9d:	ff d0                	call   *%eax
  402e9f:	8b 16                	mov    (%esi),%edx
  402ea1:	89 46 04             	mov    %eax,0x4(%esi)
  402ea4:	8b 42 18             	mov    0x18(%edx),%eax
  402ea7:	8b ce                	mov    %esi,%ecx
  402ea9:	ff d0                	call   *%eax
  402eab:	8b 16                	mov    (%esi),%edx
  402ead:	89 46 04             	mov    %eax,0x4(%esi)
  402eb0:	8b 42 1c             	mov    0x1c(%edx),%eax
  402eb3:	8b ce                	mov    %esi,%ecx
  402eb5:	ff d0                	call   *%eax
  402eb7:	8b 16                	mov    (%esi),%edx
  402eb9:	89 46 04             	mov    %eax,0x4(%esi)
  402ebc:	8b 42 20             	mov    0x20(%edx),%eax
  402ebf:	8b ce                	mov    %esi,%ecx
  402ec1:	ff d0                	call   *%eax
  402ec3:	89 46 04             	mov    %eax,0x4(%esi)
  402ec6:	8b 16                	mov    (%esi),%edx
  402ec8:	8b 42 24             	mov    0x24(%edx),%eax
  402ecb:	8b ce                	mov    %esi,%ecx
  402ecd:	ff d0                	call   *%eax
  402ecf:	8b 16                	mov    (%esi),%edx
  402ed1:	89 46 04             	mov    %eax,0x4(%esi)
  402ed4:	8b 42 28             	mov    0x28(%edx),%eax
  402ed7:	8b ce                	mov    %esi,%ecx
  402ed9:	ff d0                	call   *%eax
  402edb:	8b 16                	mov    (%esi),%edx
  402edd:	89 46 04             	mov    %eax,0x4(%esi)
  402ee0:	8b 42 2c             	mov    0x2c(%edx),%eax
  402ee3:	8b ce                	mov    %esi,%ecx
  402ee5:	ff d0                	call   *%eax
  402ee7:	8b 16                	mov    (%esi),%edx
  402ee9:	89 46 04             	mov    %eax,0x4(%esi)
  402eec:	8b 42 30             	mov    0x30(%edx),%eax
  402eef:	8b ce                	mov    %esi,%ecx
  402ef1:	ff d0                	call   *%eax
  402ef3:	8b 16                	mov    (%esi),%edx
  402ef5:	89 46 04             	mov    %eax,0x4(%esi)
  402ef8:	8b 42 34             	mov    0x34(%edx),%eax
  402efb:	8b ce                	mov    %esi,%ecx
  402efd:	ff d0                	call   *%eax
  402eff:	8b 16                	mov    (%esi),%edx
  402f01:	89 46 04             	mov    %eax,0x4(%esi)
  402f04:	8b 42 38             	mov    0x38(%edx),%eax
  402f07:	8b ce                	mov    %esi,%ecx
  402f09:	ff d0                	call   *%eax
  402f0b:	8b 16                	mov    (%esi),%edx
  402f0d:	89 46 04             	mov    %eax,0x4(%esi)
  402f10:	8b 42 3c             	mov    0x3c(%edx),%eax
  402f13:	8b ce                	mov    %esi,%ecx
  402f15:	ff d0                	call   *%eax
  402f17:	8b 16                	mov    (%esi),%edx
  402f19:	89 46 04             	mov    %eax,0x4(%esi)
  402f1c:	8b 42 40             	mov    0x40(%edx),%eax
  402f1f:	8b ce                	mov    %esi,%ecx
  402f21:	ff d0                	call   *%eax
  402f23:	8b 16                	mov    (%esi),%edx
  402f25:	89 46 04             	mov    %eax,0x4(%esi)
  402f28:	8b 42 44             	mov    0x44(%edx),%eax
  402f2b:	8b ce                	mov    %esi,%ecx
  402f2d:	ff d0                	call   *%eax
  402f2f:	8b 16                	mov    (%esi),%edx
  402f31:	89 46 04             	mov    %eax,0x4(%esi)
  402f34:	8b 42 48             	mov    0x48(%edx),%eax
  402f37:	8b ce                	mov    %esi,%ecx
  402f39:	ff d0                	call   *%eax
  402f3b:	8b 16                	mov    (%esi),%edx
  402f3d:	89 46 04             	mov    %eax,0x4(%esi)
  402f40:	8b 42 4c             	mov    0x4c(%edx),%eax
  402f43:	8b ce                	mov    %esi,%ecx
  402f45:	ff d0                	call   *%eax
  402f47:	8b 16                	mov    (%esi),%edx
  402f49:	89 46 04             	mov    %eax,0x4(%esi)
  402f4c:	8b 02                	mov    (%edx),%eax
  402f4e:	8b ce                	mov    %esi,%ecx
  402f50:	ff d0                	call   *%eax
  402f52:	8b 16                	mov    (%esi),%edx
  402f54:	89 46 04             	mov    %eax,0x4(%esi)
  402f57:	8b 42 04             	mov    0x4(%edx),%eax
  402f5a:	8b ce                	mov    %esi,%ecx
  402f5c:	ff d0                	call   *%eax
  402f5e:	8b 16                	mov    (%esi),%edx
  402f60:	89 46 04             	mov    %eax,0x4(%esi)
  402f63:	8b 42 08             	mov    0x8(%edx),%eax
  402f66:	8b ce                	mov    %esi,%ecx
  402f68:	ff d0                	call   *%eax
  402f6a:	8b 16                	mov    (%esi),%edx
  402f6c:	89 46 04             	mov    %eax,0x4(%esi)
  402f6f:	8b 42 0c             	mov    0xc(%edx),%eax
  402f72:	8b ce                	mov    %esi,%ecx
  402f74:	ff d0                	call   *%eax
  402f76:	8b 16                	mov    (%esi),%edx
  402f78:	89 46 04             	mov    %eax,0x4(%esi)
  402f7b:	8b 42 10             	mov    0x10(%edx),%eax
  402f7e:	8b ce                	mov    %esi,%ecx
  402f80:	ff d0                	call   *%eax
  402f82:	8b 16                	mov    (%esi),%edx
  402f84:	89 46 04             	mov    %eax,0x4(%esi)
  402f87:	8b 42 14             	mov    0x14(%edx),%eax
  402f8a:	8b ce                	mov    %esi,%ecx
  402f8c:	ff d0                	call   *%eax
  402f8e:	8b 16                	mov    (%esi),%edx
  402f90:	89 46 04             	mov    %eax,0x4(%esi)
  402f93:	8b 42 18             	mov    0x18(%edx),%eax
  402f96:	8b ce                	mov    %esi,%ecx
  402f98:	ff d0                	call   *%eax
  402f9a:	8b 16                	mov    (%esi),%edx
  402f9c:	89 46 04             	mov    %eax,0x4(%esi)
  402f9f:	8b 42 1c             	mov    0x1c(%edx),%eax
  402fa2:	8b ce                	mov    %esi,%ecx
  402fa4:	ff d0                	call   *%eax
  402fa6:	8b 16                	mov    (%esi),%edx
  402fa8:	89 46 04             	mov    %eax,0x4(%esi)
  402fab:	8b 42 20             	mov    0x20(%edx),%eax
  402fae:	8b ce                	mov    %esi,%ecx
  402fb0:	ff d0                	call   *%eax
  402fb2:	8b 16                	mov    (%esi),%edx
  402fb4:	89 46 04             	mov    %eax,0x4(%esi)
  402fb7:	8b 42 24             	mov    0x24(%edx),%eax
  402fba:	8b ce                	mov    %esi,%ecx
  402fbc:	ff d0                	call   *%eax
  402fbe:	8b 16                	mov    (%esi),%edx
  402fc0:	89 46 04             	mov    %eax,0x4(%esi)
  402fc3:	8b 42 28             	mov    0x28(%edx),%eax
  402fc6:	8b ce                	mov    %esi,%ecx
  402fc8:	ff d0                	call   *%eax
  402fca:	8b 16                	mov    (%esi),%edx
  402fcc:	89 46 04             	mov    %eax,0x4(%esi)
  402fcf:	8b 42 2c             	mov    0x2c(%edx),%eax
  402fd2:	8b ce                	mov    %esi,%ecx
  402fd4:	ff d0                	call   *%eax
  402fd6:	8b 16                	mov    (%esi),%edx
  402fd8:	89 46 04             	mov    %eax,0x4(%esi)
  402fdb:	8b 42 30             	mov    0x30(%edx),%eax
  402fde:	8b ce                	mov    %esi,%ecx
  402fe0:	ff d0                	call   *%eax
  402fe2:	8b 16                	mov    (%esi),%edx
  402fe4:	89 46 04             	mov    %eax,0x4(%esi)
  402fe7:	8b 42 34             	mov    0x34(%edx),%eax
  402fea:	8b ce                	mov    %esi,%ecx
  402fec:	ff d0                	call   *%eax
  402fee:	8b 16                	mov    (%esi),%edx
  402ff0:	89 46 04             	mov    %eax,0x4(%esi)
  402ff3:	8b 42 38             	mov    0x38(%edx),%eax
  402ff6:	8b ce                	mov    %esi,%ecx
  402ff8:	ff d0                	call   *%eax
  402ffa:	8b 16                	mov    (%esi),%edx
  402ffc:	89 46 04             	mov    %eax,0x4(%esi)
  402fff:	8b 42 3c             	mov    0x3c(%edx),%eax
  403002:	8b ce                	mov    %esi,%ecx
  403004:	ff d0                	call   *%eax
  403006:	8b 16                	mov    (%esi),%edx
  403008:	89 46 04             	mov    %eax,0x4(%esi)
  40300b:	8b 42 40             	mov    0x40(%edx),%eax
  40300e:	8b ce                	mov    %esi,%ecx
  403010:	ff d0                	call   *%eax
  403012:	8b 16                	mov    (%esi),%edx
  403014:	89 46 04             	mov    %eax,0x4(%esi)
  403017:	8b 42 44             	mov    0x44(%edx),%eax
  40301a:	8b ce                	mov    %esi,%ecx
  40301c:	ff d0                	call   *%eax
  40301e:	8b 16                	mov    (%esi),%edx
  403020:	89 46 04             	mov    %eax,0x4(%esi)
  403023:	8b 42 48             	mov    0x48(%edx),%eax
  403026:	8b ce                	mov    %esi,%ecx
  403028:	ff d0                	call   *%eax
  40302a:	8b 16                	mov    (%esi),%edx
  40302c:	89 46 04             	mov    %eax,0x4(%esi)
  40302f:	8b 42 4c             	mov    0x4c(%edx),%eax
  403032:	8b ce                	mov    %esi,%ecx
  403034:	ff d0                	call   *%eax
  403036:	8b 16                	mov    (%esi),%edx
  403038:	89 46 04             	mov    %eax,0x4(%esi)
  40303b:	8b 02                	mov    (%edx),%eax
  40303d:	8b ce                	mov    %esi,%ecx
  40303f:	ff d0                	call   *%eax
  403041:	8b 16                	mov    (%esi),%edx
  403043:	89 46 04             	mov    %eax,0x4(%esi)
  403046:	8b ce                	mov    %esi,%ecx
  403048:	8b 42 04             	mov    0x4(%edx),%eax
  40304b:	ff d0                	call   *%eax
  40304d:	8b 16                	mov    (%esi),%edx
  40304f:	89 46 04             	mov    %eax,0x4(%esi)
  403052:	8b 42 08             	mov    0x8(%edx),%eax
  403055:	8b ce                	mov    %esi,%ecx
  403057:	ff d0                	call   *%eax
  403059:	8b 16                	mov    (%esi),%edx
  40305b:	89 46 04             	mov    %eax,0x4(%esi)
  40305e:	8b 42 0c             	mov    0xc(%edx),%eax
  403061:	8b ce                	mov    %esi,%ecx
  403063:	ff d0                	call   *%eax
  403065:	8b 16                	mov    (%esi),%edx
  403067:	89 46 04             	mov    %eax,0x4(%esi)
  40306a:	8b 42 10             	mov    0x10(%edx),%eax
  40306d:	8b ce                	mov    %esi,%ecx
  40306f:	ff d0                	call   *%eax
  403071:	8b 16                	mov    (%esi),%edx
  403073:	89 46 04             	mov    %eax,0x4(%esi)
  403076:	8b 42 14             	mov    0x14(%edx),%eax
  403079:	8b ce                	mov    %esi,%ecx
  40307b:	ff d0                	call   *%eax
  40307d:	8b 16                	mov    (%esi),%edx
  40307f:	89 46 04             	mov    %eax,0x4(%esi)
  403082:	8b 42 18             	mov    0x18(%edx),%eax
  403085:	8b ce                	mov    %esi,%ecx
  403087:	ff d0                	call   *%eax
  403089:	8b 16                	mov    (%esi),%edx
  40308b:	89 46 04             	mov    %eax,0x4(%esi)
  40308e:	8b 42 1c             	mov    0x1c(%edx),%eax
  403091:	8b ce                	mov    %esi,%ecx
  403093:	ff d0                	call   *%eax
  403095:	8b 16                	mov    (%esi),%edx
  403097:	89 46 04             	mov    %eax,0x4(%esi)
  40309a:	8b 42 20             	mov    0x20(%edx),%eax
  40309d:	8b ce                	mov    %esi,%ecx
  40309f:	ff d0                	call   *%eax
  4030a1:	8b 16                	mov    (%esi),%edx
  4030a3:	89 46 04             	mov    %eax,0x4(%esi)
  4030a6:	8b 42 24             	mov    0x24(%edx),%eax
  4030a9:	8b ce                	mov    %esi,%ecx
  4030ab:	ff d0                	call   *%eax
  4030ad:	8b 16                	mov    (%esi),%edx
  4030af:	89 46 04             	mov    %eax,0x4(%esi)
  4030b2:	8b 42 28             	mov    0x28(%edx),%eax
  4030b5:	8b ce                	mov    %esi,%ecx
  4030b7:	ff d0                	call   *%eax
  4030b9:	8b 16                	mov    (%esi),%edx
  4030bb:	89 46 04             	mov    %eax,0x4(%esi)
  4030be:	8b 42 2c             	mov    0x2c(%edx),%eax
  4030c1:	8b ce                	mov    %esi,%ecx
  4030c3:	ff d0                	call   *%eax
  4030c5:	8b 16                	mov    (%esi),%edx
  4030c7:	89 46 04             	mov    %eax,0x4(%esi)
  4030ca:	8b 42 30             	mov    0x30(%edx),%eax
  4030cd:	8b ce                	mov    %esi,%ecx
  4030cf:	ff d0                	call   *%eax
  4030d1:	8b 16                	mov    (%esi),%edx
  4030d3:	89 46 04             	mov    %eax,0x4(%esi)
  4030d6:	8b 42 34             	mov    0x34(%edx),%eax
  4030d9:	8b ce                	mov    %esi,%ecx
  4030db:	ff d0                	call   *%eax
  4030dd:	8b 16                	mov    (%esi),%edx
  4030df:	89 46 04             	mov    %eax,0x4(%esi)
  4030e2:	8b 42 38             	mov    0x38(%edx),%eax
  4030e5:	8b ce                	mov    %esi,%ecx
  4030e7:	ff d0                	call   *%eax
  4030e9:	8b 16                	mov    (%esi),%edx
  4030eb:	89 46 04             	mov    %eax,0x4(%esi)
  4030ee:	8b 42 3c             	mov    0x3c(%edx),%eax
  4030f1:	8b ce                	mov    %esi,%ecx
  4030f3:	ff d0                	call   *%eax
  4030f5:	8b 16                	mov    (%esi),%edx
  4030f7:	89 46 04             	mov    %eax,0x4(%esi)
  4030fa:	8b 42 40             	mov    0x40(%edx),%eax
  4030fd:	8b ce                	mov    %esi,%ecx
  4030ff:	ff d0                	call   *%eax
  403101:	8b 16                	mov    (%esi),%edx
  403103:	89 46 04             	mov    %eax,0x4(%esi)
  403106:	8b 42 44             	mov    0x44(%edx),%eax
  403109:	8b ce                	mov    %esi,%ecx
  40310b:	ff d0                	call   *%eax
  40310d:	8b 16                	mov    (%esi),%edx
  40310f:	89 46 04             	mov    %eax,0x4(%esi)
  403112:	8b 42 48             	mov    0x48(%edx),%eax
  403115:	8b ce                	mov    %esi,%ecx
  403117:	ff d0                	call   *%eax
  403119:	8b 16                	mov    (%esi),%edx
  40311b:	89 46 04             	mov    %eax,0x4(%esi)
  40311e:	8b 42 4c             	mov    0x4c(%edx),%eax
  403121:	8b ce                	mov    %esi,%ecx
  403123:	ff d0                	call   *%eax
  403125:	8b 16                	mov    (%esi),%edx
  403127:	89 46 04             	mov    %eax,0x4(%esi)
  40312a:	8b 02                	mov    (%edx),%eax
  40312c:	8b ce                	mov    %esi,%ecx
  40312e:	ff d0                	call   *%eax
  403130:	8b 16                	mov    (%esi),%edx
  403132:	89 46 04             	mov    %eax,0x4(%esi)
  403135:	8b 42 04             	mov    0x4(%edx),%eax
  403138:	8b ce                	mov    %esi,%ecx
  40313a:	ff d0                	call   *%eax
  40313c:	8b 16                	mov    (%esi),%edx
  40313e:	89 46 04             	mov    %eax,0x4(%esi)
  403141:	8b 42 08             	mov    0x8(%edx),%eax
  403144:	8b ce                	mov    %esi,%ecx
  403146:	ff d0                	call   *%eax
  403148:	8b 16                	mov    (%esi),%edx
  40314a:	89 46 04             	mov    %eax,0x4(%esi)
  40314d:	8b 42 0c             	mov    0xc(%edx),%eax
  403150:	8b ce                	mov    %esi,%ecx
  403152:	ff d0                	call   *%eax
  403154:	8b 16                	mov    (%esi),%edx
  403156:	89 46 04             	mov    %eax,0x4(%esi)
  403159:	8b 42 10             	mov    0x10(%edx),%eax
  40315c:	8b ce                	mov    %esi,%ecx
  40315e:	ff d0                	call   *%eax
  403160:	8b 16                	mov    (%esi),%edx
  403162:	89 46 04             	mov    %eax,0x4(%esi)
  403165:	8b 42 14             	mov    0x14(%edx),%eax
  403168:	8b ce                	mov    %esi,%ecx
  40316a:	ff d0                	call   *%eax
  40316c:	8b 16                	mov    (%esi),%edx
  40316e:	89 46 04             	mov    %eax,0x4(%esi)
  403171:	8b 42 18             	mov    0x18(%edx),%eax
  403174:	8b ce                	mov    %esi,%ecx
  403176:	ff d0                	call   *%eax
  403178:	8b 16                	mov    (%esi),%edx
  40317a:	89 46 04             	mov    %eax,0x4(%esi)
  40317d:	8b 42 1c             	mov    0x1c(%edx),%eax
  403180:	8b ce                	mov    %esi,%ecx
  403182:	ff d0                	call   *%eax
  403184:	8b 16                	mov    (%esi),%edx
  403186:	89 46 04             	mov    %eax,0x4(%esi)
  403189:	8b 42 20             	mov    0x20(%edx),%eax
  40318c:	8b ce                	mov    %esi,%ecx
  40318e:	ff d0                	call   *%eax
  403190:	8b 16                	mov    (%esi),%edx
  403192:	89 46 04             	mov    %eax,0x4(%esi)
  403195:	8b 42 24             	mov    0x24(%edx),%eax
  403198:	8b ce                	mov    %esi,%ecx
  40319a:	ff d0                	call   *%eax
  40319c:	8b 16                	mov    (%esi),%edx
  40319e:	89 46 04             	mov    %eax,0x4(%esi)
  4031a1:	8b 42 28             	mov    0x28(%edx),%eax
  4031a4:	8b ce                	mov    %esi,%ecx
  4031a6:	ff d0                	call   *%eax
  4031a8:	8b 16                	mov    (%esi),%edx
  4031aa:	89 46 04             	mov    %eax,0x4(%esi)
  4031ad:	8b 42 2c             	mov    0x2c(%edx),%eax
  4031b0:	8b ce                	mov    %esi,%ecx
  4031b2:	ff d0                	call   *%eax
  4031b4:	8b 16                	mov    (%esi),%edx
  4031b6:	89 46 04             	mov    %eax,0x4(%esi)
  4031b9:	8b 42 30             	mov    0x30(%edx),%eax
  4031bc:	8b ce                	mov    %esi,%ecx
  4031be:	ff d0                	call   *%eax
  4031c0:	8b 16                	mov    (%esi),%edx
  4031c2:	89 46 04             	mov    %eax,0x4(%esi)
  4031c5:	8b 42 34             	mov    0x34(%edx),%eax
  4031c8:	8b ce                	mov    %esi,%ecx
  4031ca:	ff d0                	call   *%eax
  4031cc:	8b 16                	mov    (%esi),%edx
  4031ce:	89 46 04             	mov    %eax,0x4(%esi)
  4031d1:	8b 42 38             	mov    0x38(%edx),%eax
  4031d4:	8b ce                	mov    %esi,%ecx
  4031d6:	ff d0                	call   *%eax
  4031d8:	8b 16                	mov    (%esi),%edx
  4031da:	89 46 04             	mov    %eax,0x4(%esi)
  4031dd:	8b 42 3c             	mov    0x3c(%edx),%eax
  4031e0:	8b ce                	mov    %esi,%ecx
  4031e2:	ff d0                	call   *%eax
  4031e4:	8b 16                	mov    (%esi),%edx
  4031e6:	89 46 04             	mov    %eax,0x4(%esi)
  4031e9:	8b 42 40             	mov    0x40(%edx),%eax
  4031ec:	8b ce                	mov    %esi,%ecx
  4031ee:	ff d0                	call   *%eax
  4031f0:	8b 16                	mov    (%esi),%edx
  4031f2:	89 46 04             	mov    %eax,0x4(%esi)
  4031f5:	8b 42 44             	mov    0x44(%edx),%eax
  4031f8:	8b ce                	mov    %esi,%ecx
  4031fa:	ff d0                	call   *%eax
  4031fc:	8b 16                	mov    (%esi),%edx
  4031fe:	89 46 04             	mov    %eax,0x4(%esi)
  403201:	8b 42 48             	mov    0x48(%edx),%eax
  403204:	8b ce                	mov    %esi,%ecx
  403206:	ff d0                	call   *%eax
  403208:	8b 16                	mov    (%esi),%edx
  40320a:	89 46 04             	mov    %eax,0x4(%esi)
  40320d:	8b 42 4c             	mov    0x4c(%edx),%eax
  403210:	8b ce                	mov    %esi,%ecx
  403212:	ff d0                	call   *%eax
  403214:	8b 16                	mov    (%esi),%edx
  403216:	89 46 04             	mov    %eax,0x4(%esi)
  403219:	8b 02                	mov    (%edx),%eax
  40321b:	8b ce                	mov    %esi,%ecx
  40321d:	ff d0                	call   *%eax
  40321f:	8b 16                	mov    (%esi),%edx
  403221:	89 46 04             	mov    %eax,0x4(%esi)
  403224:	8b 42 04             	mov    0x4(%edx),%eax
  403227:	8b ce                	mov    %esi,%ecx
  403229:	ff d0                	call   *%eax
  40322b:	8b 16                	mov    (%esi),%edx
  40322d:	89 46 04             	mov    %eax,0x4(%esi)
  403230:	8b 42 08             	mov    0x8(%edx),%eax
  403233:	8b ce                	mov    %esi,%ecx
  403235:	ff d0                	call   *%eax
  403237:	8b 16                	mov    (%esi),%edx
  403239:	89 46 04             	mov    %eax,0x4(%esi)
  40323c:	8b 42 0c             	mov    0xc(%edx),%eax
  40323f:	8b ce                	mov    %esi,%ecx
  403241:	ff d0                	call   *%eax
  403243:	8b 16                	mov    (%esi),%edx
  403245:	89 46 04             	mov    %eax,0x4(%esi)
  403248:	8b 42 10             	mov    0x10(%edx),%eax
  40324b:	8b ce                	mov    %esi,%ecx
  40324d:	ff d0                	call   *%eax
  40324f:	8b 16                	mov    (%esi),%edx
  403251:	89 46 04             	mov    %eax,0x4(%esi)
  403254:	8b 42 14             	mov    0x14(%edx),%eax
  403257:	8b ce                	mov    %esi,%ecx
  403259:	ff d0                	call   *%eax
  40325b:	8b 16                	mov    (%esi),%edx
  40325d:	89 46 04             	mov    %eax,0x4(%esi)
  403260:	8b 42 18             	mov    0x18(%edx),%eax
  403263:	8b ce                	mov    %esi,%ecx
  403265:	ff d0                	call   *%eax
  403267:	8b 16                	mov    (%esi),%edx
  403269:	89 46 04             	mov    %eax,0x4(%esi)
  40326c:	8b 42 1c             	mov    0x1c(%edx),%eax
  40326f:	8b ce                	mov    %esi,%ecx
  403271:	ff d0                	call   *%eax
  403273:	8b 16                	mov    (%esi),%edx
  403275:	89 46 04             	mov    %eax,0x4(%esi)
  403278:	8b 42 20             	mov    0x20(%edx),%eax
  40327b:	8b ce                	mov    %esi,%ecx
  40327d:	ff d0                	call   *%eax
  40327f:	8b 16                	mov    (%esi),%edx
  403281:	89 46 04             	mov    %eax,0x4(%esi)
  403284:	8b 42 24             	mov    0x24(%edx),%eax
  403287:	8b ce                	mov    %esi,%ecx
  403289:	ff d0                	call   *%eax
  40328b:	89 46 04             	mov    %eax,0x4(%esi)
  40328e:	8b 16                	mov    (%esi),%edx
  403290:	8b 42 28             	mov    0x28(%edx),%eax
  403293:	8b ce                	mov    %esi,%ecx
  403295:	ff d0                	call   *%eax
  403297:	8b 16                	mov    (%esi),%edx
  403299:	89 46 04             	mov    %eax,0x4(%esi)
  40329c:	8b 42 2c             	mov    0x2c(%edx),%eax
  40329f:	8b ce                	mov    %esi,%ecx
  4032a1:	ff d0                	call   *%eax
  4032a3:	8b 16                	mov    (%esi),%edx
  4032a5:	89 46 04             	mov    %eax,0x4(%esi)
  4032a8:	8b 42 30             	mov    0x30(%edx),%eax
  4032ab:	8b ce                	mov    %esi,%ecx
  4032ad:	ff d0                	call   *%eax
  4032af:	8b 16                	mov    (%esi),%edx
  4032b1:	89 46 04             	mov    %eax,0x4(%esi)
  4032b4:	8b 42 34             	mov    0x34(%edx),%eax
  4032b7:	8b ce                	mov    %esi,%ecx
  4032b9:	ff d0                	call   *%eax
  4032bb:	8b 16                	mov    (%esi),%edx
  4032bd:	89 46 04             	mov    %eax,0x4(%esi)
  4032c0:	8b 42 38             	mov    0x38(%edx),%eax
  4032c3:	8b ce                	mov    %esi,%ecx
  4032c5:	ff d0                	call   *%eax
  4032c7:	8b 16                	mov    (%esi),%edx
  4032c9:	89 46 04             	mov    %eax,0x4(%esi)
  4032cc:	8b 42 3c             	mov    0x3c(%edx),%eax
  4032cf:	8b ce                	mov    %esi,%ecx
  4032d1:	ff d0                	call   *%eax
  4032d3:	8b 16                	mov    (%esi),%edx
  4032d5:	89 46 04             	mov    %eax,0x4(%esi)
  4032d8:	8b 42 40             	mov    0x40(%edx),%eax
  4032db:	8b ce                	mov    %esi,%ecx
  4032dd:	ff d0                	call   *%eax
  4032df:	8b 16                	mov    (%esi),%edx
  4032e1:	89 46 04             	mov    %eax,0x4(%esi)
  4032e4:	8b 42 44             	mov    0x44(%edx),%eax
  4032e7:	8b ce                	mov    %esi,%ecx
  4032e9:	ff d0                	call   *%eax
  4032eb:	8b 16                	mov    (%esi),%edx
  4032ed:	89 46 04             	mov    %eax,0x4(%esi)
  4032f0:	8b 42 48             	mov    0x48(%edx),%eax
  4032f3:	8b ce                	mov    %esi,%ecx
  4032f5:	ff d0                	call   *%eax
  4032f7:	8b 16                	mov    (%esi),%edx
  4032f9:	89 46 04             	mov    %eax,0x4(%esi)
  4032fc:	8b 42 4c             	mov    0x4c(%edx),%eax
  4032ff:	8b ce                	mov    %esi,%ecx
  403301:	ff d0                	call   *%eax
  403303:	8b 16                	mov    (%esi),%edx
  403305:	89 46 04             	mov    %eax,0x4(%esi)
  403308:	8b 02                	mov    (%edx),%eax
  40330a:	8b ce                	mov    %esi,%ecx
  40330c:	ff d0                	call   *%eax
  40330e:	8b 16                	mov    (%esi),%edx
  403310:	89 46 04             	mov    %eax,0x4(%esi)
  403313:	8b 42 04             	mov    0x4(%edx),%eax
  403316:	8b ce                	mov    %esi,%ecx
  403318:	ff d0                	call   *%eax
  40331a:	8b 16                	mov    (%esi),%edx
  40331c:	89 46 04             	mov    %eax,0x4(%esi)
  40331f:	8b 42 08             	mov    0x8(%edx),%eax
  403322:	8b ce                	mov    %esi,%ecx
  403324:	ff d0                	call   *%eax
  403326:	8b 16                	mov    (%esi),%edx
  403328:	89 46 04             	mov    %eax,0x4(%esi)
  40332b:	8b 42 0c             	mov    0xc(%edx),%eax
  40332e:	8b ce                	mov    %esi,%ecx
  403330:	ff d0                	call   *%eax
  403332:	8b 16                	mov    (%esi),%edx
  403334:	89 46 04             	mov    %eax,0x4(%esi)
  403337:	8b 42 10             	mov    0x10(%edx),%eax
  40333a:	8b ce                	mov    %esi,%ecx
  40333c:	ff d0                	call   *%eax
  40333e:	8b 16                	mov    (%esi),%edx
  403340:	89 46 04             	mov    %eax,0x4(%esi)
  403343:	8b 42 14             	mov    0x14(%edx),%eax
  403346:	8b ce                	mov    %esi,%ecx
  403348:	ff d0                	call   *%eax
  40334a:	8b 16                	mov    (%esi),%edx
  40334c:	89 46 04             	mov    %eax,0x4(%esi)
  40334f:	8b 42 18             	mov    0x18(%edx),%eax
  403352:	8b ce                	mov    %esi,%ecx
  403354:	ff d0                	call   *%eax
  403356:	8b 16                	mov    (%esi),%edx
  403358:	89 46 04             	mov    %eax,0x4(%esi)
  40335b:	8b 42 1c             	mov    0x1c(%edx),%eax
  40335e:	8b ce                	mov    %esi,%ecx
  403360:	ff d0                	call   *%eax
  403362:	8b 16                	mov    (%esi),%edx
  403364:	89 46 04             	mov    %eax,0x4(%esi)
  403367:	8b 42 20             	mov    0x20(%edx),%eax
  40336a:	8b ce                	mov    %esi,%ecx
  40336c:	ff d0                	call   *%eax
  40336e:	8b 16                	mov    (%esi),%edx
  403370:	89 46 04             	mov    %eax,0x4(%esi)
  403373:	8b 42 24             	mov    0x24(%edx),%eax
  403376:	8b ce                	mov    %esi,%ecx
  403378:	ff d0                	call   *%eax
  40337a:	8b 16                	mov    (%esi),%edx
  40337c:	89 46 04             	mov    %eax,0x4(%esi)
  40337f:	8b 42 28             	mov    0x28(%edx),%eax
  403382:	8b ce                	mov    %esi,%ecx
  403384:	ff d0                	call   *%eax
  403386:	8b 16                	mov    (%esi),%edx
  403388:	89 46 04             	mov    %eax,0x4(%esi)
  40338b:	8b 42 2c             	mov    0x2c(%edx),%eax
  40338e:	8b ce                	mov    %esi,%ecx
  403390:	ff d0                	call   *%eax
  403392:	8b 16                	mov    (%esi),%edx
  403394:	89 46 04             	mov    %eax,0x4(%esi)
  403397:	8b 42 30             	mov    0x30(%edx),%eax
  40339a:	8b ce                	mov    %esi,%ecx
  40339c:	ff d0                	call   *%eax
  40339e:	8b 16                	mov    (%esi),%edx
  4033a0:	89 46 04             	mov    %eax,0x4(%esi)
  4033a3:	8b 42 34             	mov    0x34(%edx),%eax
  4033a6:	8b ce                	mov    %esi,%ecx
  4033a8:	ff d0                	call   *%eax
  4033aa:	8b 16                	mov    (%esi),%edx
  4033ac:	89 46 04             	mov    %eax,0x4(%esi)
  4033af:	8b 42 38             	mov    0x38(%edx),%eax
  4033b2:	8b ce                	mov    %esi,%ecx
  4033b4:	ff d0                	call   *%eax
  4033b6:	8b 16                	mov    (%esi),%edx
  4033b8:	89 46 04             	mov    %eax,0x4(%esi)
  4033bb:	8b 42 3c             	mov    0x3c(%edx),%eax
  4033be:	8b ce                	mov    %esi,%ecx
  4033c0:	ff d0                	call   *%eax
  4033c2:	8b 16                	mov    (%esi),%edx
  4033c4:	89 46 04             	mov    %eax,0x4(%esi)
  4033c7:	8b 42 40             	mov    0x40(%edx),%eax
  4033ca:	8b ce                	mov    %esi,%ecx
  4033cc:	ff d0                	call   *%eax
  4033ce:	8b 16                	mov    (%esi),%edx
  4033d0:	89 46 04             	mov    %eax,0x4(%esi)
  4033d3:	8b 42 44             	mov    0x44(%edx),%eax
  4033d6:	8b ce                	mov    %esi,%ecx
  4033d8:	ff d0                	call   *%eax
  4033da:	8b 16                	mov    (%esi),%edx
  4033dc:	89 46 04             	mov    %eax,0x4(%esi)
  4033df:	8b 42 48             	mov    0x48(%edx),%eax
  4033e2:	8b ce                	mov    %esi,%ecx
  4033e4:	ff d0                	call   *%eax
  4033e6:	8b 16                	mov    (%esi),%edx
  4033e8:	89 46 04             	mov    %eax,0x4(%esi)
  4033eb:	8b 42 4c             	mov    0x4c(%edx),%eax
  4033ee:	8b ce                	mov    %esi,%ecx
  4033f0:	ff d0                	call   *%eax
  4033f2:	8b 16                	mov    (%esi),%edx
  4033f4:	89 46 04             	mov    %eax,0x4(%esi)
  4033f7:	8b 02                	mov    (%edx),%eax
  4033f9:	8b ce                	mov    %esi,%ecx
  4033fb:	ff d0                	call   *%eax
  4033fd:	8b 16                	mov    (%esi),%edx
  4033ff:	89 46 04             	mov    %eax,0x4(%esi)
  403402:	8b 42 04             	mov    0x4(%edx),%eax
  403405:	8b ce                	mov    %esi,%ecx
  403407:	ff d0                	call   *%eax
  403409:	8b 16                	mov    (%esi),%edx
  40340b:	89 46 04             	mov    %eax,0x4(%esi)
  40340e:	8b ce                	mov    %esi,%ecx
  403410:	8b 42 08             	mov    0x8(%edx),%eax
  403413:	ff d0                	call   *%eax
  403415:	8b 16                	mov    (%esi),%edx
  403417:	89 46 04             	mov    %eax,0x4(%esi)
  40341a:	8b 42 0c             	mov    0xc(%edx),%eax
  40341d:	8b ce                	mov    %esi,%ecx
  40341f:	ff d0                	call   *%eax
  403421:	8b 16                	mov    (%esi),%edx
  403423:	89 46 04             	mov    %eax,0x4(%esi)
  403426:	8b 42 10             	mov    0x10(%edx),%eax
  403429:	8b ce                	mov    %esi,%ecx
  40342b:	ff d0                	call   *%eax
  40342d:	8b 16                	mov    (%esi),%edx
  40342f:	89 46 04             	mov    %eax,0x4(%esi)
  403432:	8b 42 14             	mov    0x14(%edx),%eax
  403435:	8b ce                	mov    %esi,%ecx
  403437:	ff d0                	call   *%eax
  403439:	8b 16                	mov    (%esi),%edx
  40343b:	89 46 04             	mov    %eax,0x4(%esi)
  40343e:	8b 42 18             	mov    0x18(%edx),%eax
  403441:	8b ce                	mov    %esi,%ecx
  403443:	ff d0                	call   *%eax
  403445:	8b 16                	mov    (%esi),%edx
  403447:	89 46 04             	mov    %eax,0x4(%esi)
  40344a:	8b 42 1c             	mov    0x1c(%edx),%eax
  40344d:	8b ce                	mov    %esi,%ecx
  40344f:	ff d0                	call   *%eax
  403451:	8b 16                	mov    (%esi),%edx
  403453:	89 46 04             	mov    %eax,0x4(%esi)
  403456:	8b 42 20             	mov    0x20(%edx),%eax
  403459:	8b ce                	mov    %esi,%ecx
  40345b:	ff d0                	call   *%eax
  40345d:	8b 16                	mov    (%esi),%edx
  40345f:	89 46 04             	mov    %eax,0x4(%esi)
  403462:	8b 42 24             	mov    0x24(%edx),%eax
  403465:	8b ce                	mov    %esi,%ecx
  403467:	ff d0                	call   *%eax
  403469:	8b 16                	mov    (%esi),%edx
  40346b:	89 46 04             	mov    %eax,0x4(%esi)
  40346e:	8b 42 28             	mov    0x28(%edx),%eax
  403471:	8b ce                	mov    %esi,%ecx
  403473:	ff d0                	call   *%eax
  403475:	8b 16                	mov    (%esi),%edx
  403477:	89 46 04             	mov    %eax,0x4(%esi)
  40347a:	8b 42 2c             	mov    0x2c(%edx),%eax
  40347d:	8b ce                	mov    %esi,%ecx
  40347f:	ff d0                	call   *%eax
  403481:	8b 16                	mov    (%esi),%edx
  403483:	89 46 04             	mov    %eax,0x4(%esi)
  403486:	8b 42 30             	mov    0x30(%edx),%eax
  403489:	8b ce                	mov    %esi,%ecx
  40348b:	ff d0                	call   *%eax
  40348d:	8b 16                	mov    (%esi),%edx
  40348f:	89 46 04             	mov    %eax,0x4(%esi)
  403492:	8b 42 34             	mov    0x34(%edx),%eax
  403495:	8b ce                	mov    %esi,%ecx
  403497:	ff d0                	call   *%eax
  403499:	8b 16                	mov    (%esi),%edx
  40349b:	89 46 04             	mov    %eax,0x4(%esi)
  40349e:	8b 42 38             	mov    0x38(%edx),%eax
  4034a1:	8b ce                	mov    %esi,%ecx
  4034a3:	ff d0                	call   *%eax
  4034a5:	8b 16                	mov    (%esi),%edx
  4034a7:	89 46 04             	mov    %eax,0x4(%esi)
  4034aa:	8b 42 3c             	mov    0x3c(%edx),%eax
  4034ad:	8b ce                	mov    %esi,%ecx
  4034af:	ff d0                	call   *%eax
  4034b1:	8b 16                	mov    (%esi),%edx
  4034b3:	89 46 04             	mov    %eax,0x4(%esi)
  4034b6:	8b 42 40             	mov    0x40(%edx),%eax
  4034b9:	8b ce                	mov    %esi,%ecx
  4034bb:	ff d0                	call   *%eax
  4034bd:	8b 16                	mov    (%esi),%edx
  4034bf:	89 46 04             	mov    %eax,0x4(%esi)
  4034c2:	8b 42 44             	mov    0x44(%edx),%eax
  4034c5:	8b ce                	mov    %esi,%ecx
  4034c7:	ff d0                	call   *%eax
  4034c9:	8b 16                	mov    (%esi),%edx
  4034cb:	89 46 04             	mov    %eax,0x4(%esi)
  4034ce:	8b 42 48             	mov    0x48(%edx),%eax
  4034d1:	8b ce                	mov    %esi,%ecx
  4034d3:	ff d0                	call   *%eax
  4034d5:	8b 16                	mov    (%esi),%edx
  4034d7:	89 46 04             	mov    %eax,0x4(%esi)
  4034da:	8b 42 4c             	mov    0x4c(%edx),%eax
  4034dd:	8b ce                	mov    %esi,%ecx
  4034df:	ff d0                	call   *%eax
  4034e1:	8b 16                	mov    (%esi),%edx
  4034e3:	89 46 04             	mov    %eax,0x4(%esi)
  4034e6:	8b 02                	mov    (%edx),%eax
  4034e8:	8b ce                	mov    %esi,%ecx
  4034ea:	ff d0                	call   *%eax
  4034ec:	8b 16                	mov    (%esi),%edx
  4034ee:	89 46 04             	mov    %eax,0x4(%esi)
  4034f1:	8b 42 04             	mov    0x4(%edx),%eax
  4034f4:	8b ce                	mov    %esi,%ecx
  4034f6:	ff d0                	call   *%eax
  4034f8:	8b 16                	mov    (%esi),%edx
  4034fa:	89 46 04             	mov    %eax,0x4(%esi)
  4034fd:	8b 42 08             	mov    0x8(%edx),%eax
  403500:	8b ce                	mov    %esi,%ecx
  403502:	ff d0                	call   *%eax
  403504:	8b 16                	mov    (%esi),%edx
  403506:	89 46 04             	mov    %eax,0x4(%esi)
  403509:	8b 42 0c             	mov    0xc(%edx),%eax
  40350c:	8b ce                	mov    %esi,%ecx
  40350e:	ff d0                	call   *%eax
  403510:	8b 16                	mov    (%esi),%edx
  403512:	89 46 04             	mov    %eax,0x4(%esi)
  403515:	8b 42 10             	mov    0x10(%edx),%eax
  403518:	8b ce                	mov    %esi,%ecx
  40351a:	ff d0                	call   *%eax
  40351c:	8b 16                	mov    (%esi),%edx
  40351e:	89 46 04             	mov    %eax,0x4(%esi)
  403521:	8b 42 14             	mov    0x14(%edx),%eax
  403524:	8b ce                	mov    %esi,%ecx
  403526:	ff d0                	call   *%eax
  403528:	8b 16                	mov    (%esi),%edx
  40352a:	89 46 04             	mov    %eax,0x4(%esi)
  40352d:	8b 42 18             	mov    0x18(%edx),%eax
  403530:	8b ce                	mov    %esi,%ecx
  403532:	ff d0                	call   *%eax
  403534:	8b 16                	mov    (%esi),%edx
  403536:	89 46 04             	mov    %eax,0x4(%esi)
  403539:	8b 42 1c             	mov    0x1c(%edx),%eax
  40353c:	8b ce                	mov    %esi,%ecx
  40353e:	ff d0                	call   *%eax
  403540:	8b 16                	mov    (%esi),%edx
  403542:	89 46 04             	mov    %eax,0x4(%esi)
  403545:	8b 42 20             	mov    0x20(%edx),%eax
  403548:	8b ce                	mov    %esi,%ecx
  40354a:	ff d0                	call   *%eax
  40354c:	8b 16                	mov    (%esi),%edx
  40354e:	89 46 04             	mov    %eax,0x4(%esi)
  403551:	8b 42 24             	mov    0x24(%edx),%eax
  403554:	8b ce                	mov    %esi,%ecx
  403556:	ff d0                	call   *%eax
  403558:	8b 16                	mov    (%esi),%edx
  40355a:	89 46 04             	mov    %eax,0x4(%esi)
  40355d:	8b 42 28             	mov    0x28(%edx),%eax
  403560:	8b ce                	mov    %esi,%ecx
  403562:	ff d0                	call   *%eax
  403564:	8b 16                	mov    (%esi),%edx
  403566:	89 46 04             	mov    %eax,0x4(%esi)
  403569:	8b 42 2c             	mov    0x2c(%edx),%eax
  40356c:	8b ce                	mov    %esi,%ecx
  40356e:	ff d0                	call   *%eax
  403570:	8b 16                	mov    (%esi),%edx
  403572:	89 46 04             	mov    %eax,0x4(%esi)
  403575:	8b 42 30             	mov    0x30(%edx),%eax
  403578:	8b ce                	mov    %esi,%ecx
  40357a:	ff d0                	call   *%eax
  40357c:	8b 16                	mov    (%esi),%edx
  40357e:	89 46 04             	mov    %eax,0x4(%esi)
  403581:	8b 42 34             	mov    0x34(%edx),%eax
  403584:	8b ce                	mov    %esi,%ecx
  403586:	ff d0                	call   *%eax
  403588:	8b 16                	mov    (%esi),%edx
  40358a:	89 46 04             	mov    %eax,0x4(%esi)
  40358d:	8b 42 38             	mov    0x38(%edx),%eax
  403590:	8b ce                	mov    %esi,%ecx
  403592:	ff d0                	call   *%eax
  403594:	8b 16                	mov    (%esi),%edx
  403596:	89 46 04             	mov    %eax,0x4(%esi)
  403599:	8b 42 3c             	mov    0x3c(%edx),%eax
  40359c:	8b ce                	mov    %esi,%ecx
  40359e:	ff d0                	call   *%eax
  4035a0:	8b 16                	mov    (%esi),%edx
  4035a2:	89 46 04             	mov    %eax,0x4(%esi)
  4035a5:	8b 42 40             	mov    0x40(%edx),%eax
  4035a8:	8b ce                	mov    %esi,%ecx
  4035aa:	ff d0                	call   *%eax
  4035ac:	8b 16                	mov    (%esi),%edx
  4035ae:	89 46 04             	mov    %eax,0x4(%esi)
  4035b1:	8b 42 44             	mov    0x44(%edx),%eax
  4035b4:	8b ce                	mov    %esi,%ecx
  4035b6:	ff d0                	call   *%eax
  4035b8:	8b 16                	mov    (%esi),%edx
  4035ba:	89 46 04             	mov    %eax,0x4(%esi)
  4035bd:	8b 42 48             	mov    0x48(%edx),%eax
  4035c0:	8b ce                	mov    %esi,%ecx
  4035c2:	ff d0                	call   *%eax
  4035c4:	8b 16                	mov    (%esi),%edx
  4035c6:	89 46 04             	mov    %eax,0x4(%esi)
  4035c9:	8b 42 4c             	mov    0x4c(%edx),%eax
  4035cc:	8b ce                	mov    %esi,%ecx
  4035ce:	ff d0                	call   *%eax
  4035d0:	8b 16                	mov    (%esi),%edx
  4035d2:	89 46 04             	mov    %eax,0x4(%esi)
  4035d5:	8b 02                	mov    (%edx),%eax
  4035d7:	8b ce                	mov    %esi,%ecx
  4035d9:	ff d0                	call   *%eax
  4035db:	8b 16                	mov    (%esi),%edx
  4035dd:	89 46 04             	mov    %eax,0x4(%esi)
  4035e0:	8b 42 04             	mov    0x4(%edx),%eax
  4035e3:	8b ce                	mov    %esi,%ecx
  4035e5:	ff d0                	call   *%eax
  4035e7:	8b 16                	mov    (%esi),%edx
  4035e9:	89 46 04             	mov    %eax,0x4(%esi)
  4035ec:	8b 42 08             	mov    0x8(%edx),%eax
  4035ef:	8b ce                	mov    %esi,%ecx
  4035f1:	ff d0                	call   *%eax
  4035f3:	8b 16                	mov    (%esi),%edx
  4035f5:	89 46 04             	mov    %eax,0x4(%esi)
  4035f8:	8b 42 0c             	mov    0xc(%edx),%eax
  4035fb:	8b ce                	mov    %esi,%ecx
  4035fd:	ff d0                	call   *%eax
  4035ff:	8b 16                	mov    (%esi),%edx
  403601:	89 46 04             	mov    %eax,0x4(%esi)
  403604:	8b 42 10             	mov    0x10(%edx),%eax
  403607:	8b ce                	mov    %esi,%ecx
  403609:	ff d0                	call   *%eax
  40360b:	8b 16                	mov    (%esi),%edx
  40360d:	89 46 04             	mov    %eax,0x4(%esi)
  403610:	8b 42 14             	mov    0x14(%edx),%eax
  403613:	8b ce                	mov    %esi,%ecx
  403615:	ff d0                	call   *%eax
  403617:	8b 16                	mov    (%esi),%edx
  403619:	89 46 04             	mov    %eax,0x4(%esi)
  40361c:	8b 42 18             	mov    0x18(%edx),%eax
  40361f:	8b ce                	mov    %esi,%ecx
  403621:	ff d0                	call   *%eax
  403623:	8b 16                	mov    (%esi),%edx
  403625:	89 46 04             	mov    %eax,0x4(%esi)
  403628:	8b 42 1c             	mov    0x1c(%edx),%eax
  40362b:	8b ce                	mov    %esi,%ecx
  40362d:	ff d0                	call   *%eax
  40362f:	8b 16                	mov    (%esi),%edx
  403631:	89 46 04             	mov    %eax,0x4(%esi)
  403634:	8b 42 20             	mov    0x20(%edx),%eax
  403637:	8b ce                	mov    %esi,%ecx
  403639:	ff d0                	call   *%eax
  40363b:	8b 16                	mov    (%esi),%edx
  40363d:	89 46 04             	mov    %eax,0x4(%esi)
  403640:	8b 42 24             	mov    0x24(%edx),%eax
  403643:	8b ce                	mov    %esi,%ecx
  403645:	ff d0                	call   *%eax
  403647:	8b 16                	mov    (%esi),%edx
  403649:	89 46 04             	mov    %eax,0x4(%esi)
  40364c:	8b 42 28             	mov    0x28(%edx),%eax
  40364f:	8b ce                	mov    %esi,%ecx
  403651:	ff d0                	call   *%eax
  403653:	89 46 04             	mov    %eax,0x4(%esi)
  403656:	8b 16                	mov    (%esi),%edx
  403658:	8b 42 2c             	mov    0x2c(%edx),%eax
  40365b:	8b ce                	mov    %esi,%ecx
  40365d:	ff d0                	call   *%eax
  40365f:	8b 16                	mov    (%esi),%edx
  403661:	89 46 04             	mov    %eax,0x4(%esi)
  403664:	8b 42 30             	mov    0x30(%edx),%eax
  403667:	8b ce                	mov    %esi,%ecx
  403669:	ff d0                	call   *%eax
  40366b:	8b 16                	mov    (%esi),%edx
  40366d:	89 46 04             	mov    %eax,0x4(%esi)
  403670:	8b 42 34             	mov    0x34(%edx),%eax
  403673:	8b ce                	mov    %esi,%ecx
  403675:	ff d0                	call   *%eax
  403677:	8b 16                	mov    (%esi),%edx
  403679:	89 46 04             	mov    %eax,0x4(%esi)
  40367c:	8b 42 38             	mov    0x38(%edx),%eax
  40367f:	8b ce                	mov    %esi,%ecx
  403681:	ff d0                	call   *%eax
  403683:	8b 16                	mov    (%esi),%edx
  403685:	89 46 04             	mov    %eax,0x4(%esi)
  403688:	8b 42 3c             	mov    0x3c(%edx),%eax
  40368b:	8b ce                	mov    %esi,%ecx
  40368d:	ff d0                	call   *%eax
  40368f:	8b 16                	mov    (%esi),%edx
  403691:	89 46 04             	mov    %eax,0x4(%esi)
  403694:	8b 42 40             	mov    0x40(%edx),%eax
  403697:	8b ce                	mov    %esi,%ecx
  403699:	ff d0                	call   *%eax
  40369b:	8b 16                	mov    (%esi),%edx
  40369d:	89 46 04             	mov    %eax,0x4(%esi)
  4036a0:	8b 42 44             	mov    0x44(%edx),%eax
  4036a3:	8b ce                	mov    %esi,%ecx
  4036a5:	ff d0                	call   *%eax
  4036a7:	8b 16                	mov    (%esi),%edx
  4036a9:	89 46 04             	mov    %eax,0x4(%esi)
  4036ac:	8b 42 48             	mov    0x48(%edx),%eax
  4036af:	8b ce                	mov    %esi,%ecx
  4036b1:	ff d0                	call   *%eax
  4036b3:	8b 16                	mov    (%esi),%edx
  4036b5:	89 46 04             	mov    %eax,0x4(%esi)
  4036b8:	8b 42 4c             	mov    0x4c(%edx),%eax
  4036bb:	8b ce                	mov    %esi,%ecx
  4036bd:	ff d0                	call   *%eax
  4036bf:	8b 16                	mov    (%esi),%edx
  4036c1:	89 46 04             	mov    %eax,0x4(%esi)
  4036c4:	8b 02                	mov    (%edx),%eax
  4036c6:	8b ce                	mov    %esi,%ecx
  4036c8:	ff d0                	call   *%eax
  4036ca:	8b 16                	mov    (%esi),%edx
  4036cc:	89 46 04             	mov    %eax,0x4(%esi)
  4036cf:	8b 42 04             	mov    0x4(%edx),%eax
  4036d2:	8b ce                	mov    %esi,%ecx
  4036d4:	ff d0                	call   *%eax
  4036d6:	8b 16                	mov    (%esi),%edx
  4036d8:	89 46 04             	mov    %eax,0x4(%esi)
  4036db:	8b 42 08             	mov    0x8(%edx),%eax
  4036de:	8b ce                	mov    %esi,%ecx
  4036e0:	ff d0                	call   *%eax
  4036e2:	8b 16                	mov    (%esi),%edx
  4036e4:	89 46 04             	mov    %eax,0x4(%esi)
  4036e7:	8b 42 0c             	mov    0xc(%edx),%eax
  4036ea:	8b ce                	mov    %esi,%ecx
  4036ec:	ff d0                	call   *%eax
  4036ee:	8b 16                	mov    (%esi),%edx
  4036f0:	89 46 04             	mov    %eax,0x4(%esi)
  4036f3:	8b 42 10             	mov    0x10(%edx),%eax
  4036f6:	8b ce                	mov    %esi,%ecx
  4036f8:	ff d0                	call   *%eax
  4036fa:	8b 16                	mov    (%esi),%edx
  4036fc:	89 46 04             	mov    %eax,0x4(%esi)
  4036ff:	8b 42 14             	mov    0x14(%edx),%eax
  403702:	8b ce                	mov    %esi,%ecx
  403704:	ff d0                	call   *%eax
  403706:	8b 16                	mov    (%esi),%edx
  403708:	89 46 04             	mov    %eax,0x4(%esi)
  40370b:	8b 42 18             	mov    0x18(%edx),%eax
  40370e:	8b ce                	mov    %esi,%ecx
  403710:	ff d0                	call   *%eax
  403712:	8b 16                	mov    (%esi),%edx
  403714:	89 46 04             	mov    %eax,0x4(%esi)
  403717:	8b 42 1c             	mov    0x1c(%edx),%eax
  40371a:	8b ce                	mov    %esi,%ecx
  40371c:	ff d0                	call   *%eax
  40371e:	8b 16                	mov    (%esi),%edx
  403720:	89 46 04             	mov    %eax,0x4(%esi)
  403723:	8b 42 20             	mov    0x20(%edx),%eax
  403726:	8b ce                	mov    %esi,%ecx
  403728:	ff d0                	call   *%eax
  40372a:	8b 16                	mov    (%esi),%edx
  40372c:	89 46 04             	mov    %eax,0x4(%esi)
  40372f:	8b 42 24             	mov    0x24(%edx),%eax
  403732:	8b ce                	mov    %esi,%ecx
  403734:	ff d0                	call   *%eax
  403736:	8b 16                	mov    (%esi),%edx
  403738:	89 46 04             	mov    %eax,0x4(%esi)
  40373b:	8b 42 28             	mov    0x28(%edx),%eax
  40373e:	8b ce                	mov    %esi,%ecx
  403740:	ff d0                	call   *%eax
  403742:	8b 16                	mov    (%esi),%edx
  403744:	89 46 04             	mov    %eax,0x4(%esi)
  403747:	8b 42 2c             	mov    0x2c(%edx),%eax
  40374a:	8b ce                	mov    %esi,%ecx
  40374c:	ff d0                	call   *%eax
  40374e:	8b 16                	mov    (%esi),%edx
  403750:	89 46 04             	mov    %eax,0x4(%esi)
  403753:	8b 42 30             	mov    0x30(%edx),%eax
  403756:	8b ce                	mov    %esi,%ecx
  403758:	ff d0                	call   *%eax
  40375a:	8b 16                	mov    (%esi),%edx
  40375c:	89 46 04             	mov    %eax,0x4(%esi)
  40375f:	8b 42 34             	mov    0x34(%edx),%eax
  403762:	8b ce                	mov    %esi,%ecx
  403764:	ff d0                	call   *%eax
  403766:	8b 16                	mov    (%esi),%edx
  403768:	89 46 04             	mov    %eax,0x4(%esi)
  40376b:	8b 42 38             	mov    0x38(%edx),%eax
  40376e:	8b ce                	mov    %esi,%ecx
  403770:	ff d0                	call   *%eax
  403772:	8b 16                	mov    (%esi),%edx
  403774:	89 46 04             	mov    %eax,0x4(%esi)
  403777:	8b 42 3c             	mov    0x3c(%edx),%eax
  40377a:	8b ce                	mov    %esi,%ecx
  40377c:	ff d0                	call   *%eax
  40377e:	8b 16                	mov    (%esi),%edx
  403780:	89 46 04             	mov    %eax,0x4(%esi)
  403783:	8b 42 40             	mov    0x40(%edx),%eax
  403786:	8b ce                	mov    %esi,%ecx
  403788:	ff d0                	call   *%eax
  40378a:	8b 16                	mov    (%esi),%edx
  40378c:	89 46 04             	mov    %eax,0x4(%esi)
  40378f:	8b 42 44             	mov    0x44(%edx),%eax
  403792:	8b ce                	mov    %esi,%ecx
  403794:	ff d0                	call   *%eax
  403796:	8b 16                	mov    (%esi),%edx
  403798:	89 46 04             	mov    %eax,0x4(%esi)
  40379b:	8b 42 48             	mov    0x48(%edx),%eax
  40379e:	8b ce                	mov    %esi,%ecx
  4037a0:	ff d0                	call   *%eax
  4037a2:	8b 16                	mov    (%esi),%edx
  4037a4:	89 46 04             	mov    %eax,0x4(%esi)
  4037a7:	8b 42 4c             	mov    0x4c(%edx),%eax
  4037aa:	8b ce                	mov    %esi,%ecx
  4037ac:	ff d0                	call   *%eax
  4037ae:	8b 16                	mov    (%esi),%edx
  4037b0:	89 46 04             	mov    %eax,0x4(%esi)
  4037b3:	8b 02                	mov    (%edx),%eax
  4037b5:	8b ce                	mov    %esi,%ecx
  4037b7:	ff d0                	call   *%eax
  4037b9:	8b 16                	mov    (%esi),%edx
  4037bb:	89 46 04             	mov    %eax,0x4(%esi)
  4037be:	8b 42 04             	mov    0x4(%edx),%eax
  4037c1:	8b ce                	mov    %esi,%ecx
  4037c3:	ff d0                	call   *%eax
  4037c5:	8b 16                	mov    (%esi),%edx
  4037c7:	89 46 04             	mov    %eax,0x4(%esi)
  4037ca:	8b 42 08             	mov    0x8(%edx),%eax
  4037cd:	8b ce                	mov    %esi,%ecx
  4037cf:	ff d0                	call   *%eax
  4037d1:	8b 16                	mov    (%esi),%edx
  4037d3:	89 46 04             	mov    %eax,0x4(%esi)
  4037d6:	8b ce                	mov    %esi,%ecx
  4037d8:	8b 42 0c             	mov    0xc(%edx),%eax
  4037db:	ff d0                	call   *%eax
  4037dd:	8b 16                	mov    (%esi),%edx
  4037df:	89 46 04             	mov    %eax,0x4(%esi)
  4037e2:	8b 42 10             	mov    0x10(%edx),%eax
  4037e5:	8b ce                	mov    %esi,%ecx
  4037e7:	ff d0                	call   *%eax
  4037e9:	8b 16                	mov    (%esi),%edx
  4037eb:	89 46 04             	mov    %eax,0x4(%esi)
  4037ee:	8b 42 14             	mov    0x14(%edx),%eax
  4037f1:	8b ce                	mov    %esi,%ecx
  4037f3:	ff d0                	call   *%eax
  4037f5:	8b 16                	mov    (%esi),%edx
  4037f7:	89 46 04             	mov    %eax,0x4(%esi)
  4037fa:	8b 42 18             	mov    0x18(%edx),%eax
  4037fd:	8b ce                	mov    %esi,%ecx
  4037ff:	ff d0                	call   *%eax
  403801:	8b 16                	mov    (%esi),%edx
  403803:	89 46 04             	mov    %eax,0x4(%esi)
  403806:	8b 42 1c             	mov    0x1c(%edx),%eax
  403809:	8b ce                	mov    %esi,%ecx
  40380b:	ff d0                	call   *%eax
  40380d:	8b 16                	mov    (%esi),%edx
  40380f:	89 46 04             	mov    %eax,0x4(%esi)
  403812:	8b 42 20             	mov    0x20(%edx),%eax
  403815:	8b ce                	mov    %esi,%ecx
  403817:	ff d0                	call   *%eax
  403819:	8b 16                	mov    (%esi),%edx
  40381b:	89 46 04             	mov    %eax,0x4(%esi)
  40381e:	8b 42 24             	mov    0x24(%edx),%eax
  403821:	8b ce                	mov    %esi,%ecx
  403823:	ff d0                	call   *%eax
  403825:	8b 16                	mov    (%esi),%edx
  403827:	89 46 04             	mov    %eax,0x4(%esi)
  40382a:	8b 42 28             	mov    0x28(%edx),%eax
  40382d:	8b ce                	mov    %esi,%ecx
  40382f:	ff d0                	call   *%eax
  403831:	8b 16                	mov    (%esi),%edx
  403833:	89 46 04             	mov    %eax,0x4(%esi)
  403836:	8b 42 2c             	mov    0x2c(%edx),%eax
  403839:	8b ce                	mov    %esi,%ecx
  40383b:	ff d0                	call   *%eax
  40383d:	8b 16                	mov    (%esi),%edx
  40383f:	89 46 04             	mov    %eax,0x4(%esi)
  403842:	8b 42 30             	mov    0x30(%edx),%eax
  403845:	8b ce                	mov    %esi,%ecx
  403847:	ff d0                	call   *%eax
  403849:	8b 16                	mov    (%esi),%edx
  40384b:	89 46 04             	mov    %eax,0x4(%esi)
  40384e:	8b 42 34             	mov    0x34(%edx),%eax
  403851:	8b ce                	mov    %esi,%ecx
  403853:	ff d0                	call   *%eax
  403855:	8b 16                	mov    (%esi),%edx
  403857:	89 46 04             	mov    %eax,0x4(%esi)
  40385a:	8b 42 38             	mov    0x38(%edx),%eax
  40385d:	8b ce                	mov    %esi,%ecx
  40385f:	ff d0                	call   *%eax
  403861:	8b 16                	mov    (%esi),%edx
  403863:	89 46 04             	mov    %eax,0x4(%esi)
  403866:	8b 42 3c             	mov    0x3c(%edx),%eax
  403869:	8b ce                	mov    %esi,%ecx
  40386b:	ff d0                	call   *%eax
  40386d:	8b 16                	mov    (%esi),%edx
  40386f:	89 46 04             	mov    %eax,0x4(%esi)
  403872:	8b 42 40             	mov    0x40(%edx),%eax
  403875:	8b ce                	mov    %esi,%ecx
  403877:	ff d0                	call   *%eax
  403879:	8b 16                	mov    (%esi),%edx
  40387b:	89 46 04             	mov    %eax,0x4(%esi)
  40387e:	8b 42 44             	mov    0x44(%edx),%eax
  403881:	8b ce                	mov    %esi,%ecx
  403883:	ff d0                	call   *%eax
  403885:	8b 16                	mov    (%esi),%edx
  403887:	89 46 04             	mov    %eax,0x4(%esi)
  40388a:	8b 42 48             	mov    0x48(%edx),%eax
  40388d:	8b ce                	mov    %esi,%ecx
  40388f:	ff d0                	call   *%eax
  403891:	8b 16                	mov    (%esi),%edx
  403893:	89 46 04             	mov    %eax,0x4(%esi)
  403896:	8b 42 4c             	mov    0x4c(%edx),%eax
  403899:	8b ce                	mov    %esi,%ecx
  40389b:	ff d0                	call   *%eax
  40389d:	8b 16                	mov    (%esi),%edx
  40389f:	89 46 04             	mov    %eax,0x4(%esi)
  4038a2:	8b 02                	mov    (%edx),%eax
  4038a4:	8b ce                	mov    %esi,%ecx
  4038a6:	ff d0                	call   *%eax
  4038a8:	8b 16                	mov    (%esi),%edx
  4038aa:	89 46 04             	mov    %eax,0x4(%esi)
  4038ad:	8b 42 04             	mov    0x4(%edx),%eax
  4038b0:	8b ce                	mov    %esi,%ecx
  4038b2:	ff d0                	call   *%eax
  4038b4:	8b 16                	mov    (%esi),%edx
  4038b6:	89 46 04             	mov    %eax,0x4(%esi)
  4038b9:	8b 42 08             	mov    0x8(%edx),%eax
  4038bc:	8b ce                	mov    %esi,%ecx
  4038be:	ff d0                	call   *%eax
  4038c0:	8b 16                	mov    (%esi),%edx
  4038c2:	89 46 04             	mov    %eax,0x4(%esi)
  4038c5:	8b 42 0c             	mov    0xc(%edx),%eax
  4038c8:	8b ce                	mov    %esi,%ecx
  4038ca:	ff d0                	call   *%eax
  4038cc:	8b 16                	mov    (%esi),%edx
  4038ce:	89 46 04             	mov    %eax,0x4(%esi)
  4038d1:	8b 42 10             	mov    0x10(%edx),%eax
  4038d4:	8b ce                	mov    %esi,%ecx
  4038d6:	ff d0                	call   *%eax
  4038d8:	8b 16                	mov    (%esi),%edx
  4038da:	89 46 04             	mov    %eax,0x4(%esi)
  4038dd:	8b 42 14             	mov    0x14(%edx),%eax
  4038e0:	8b ce                	mov    %esi,%ecx
  4038e2:	ff d0                	call   *%eax
  4038e4:	8b 16                	mov    (%esi),%edx
  4038e6:	89 46 04             	mov    %eax,0x4(%esi)
  4038e9:	8b 42 18             	mov    0x18(%edx),%eax
  4038ec:	8b ce                	mov    %esi,%ecx
  4038ee:	ff d0                	call   *%eax
  4038f0:	8b 16                	mov    (%esi),%edx
  4038f2:	89 46 04             	mov    %eax,0x4(%esi)
  4038f5:	8b 42 1c             	mov    0x1c(%edx),%eax
  4038f8:	8b ce                	mov    %esi,%ecx
  4038fa:	ff d0                	call   *%eax
  4038fc:	8b 16                	mov    (%esi),%edx
  4038fe:	89 46 04             	mov    %eax,0x4(%esi)
  403901:	8b 42 20             	mov    0x20(%edx),%eax
  403904:	8b ce                	mov    %esi,%ecx
  403906:	ff d0                	call   *%eax
  403908:	8b 16                	mov    (%esi),%edx
  40390a:	89 46 04             	mov    %eax,0x4(%esi)
  40390d:	8b 42 24             	mov    0x24(%edx),%eax
  403910:	8b ce                	mov    %esi,%ecx
  403912:	ff d0                	call   *%eax
  403914:	8b 16                	mov    (%esi),%edx
  403916:	89 46 04             	mov    %eax,0x4(%esi)
  403919:	8b 42 28             	mov    0x28(%edx),%eax
  40391c:	8b ce                	mov    %esi,%ecx
  40391e:	ff d0                	call   *%eax
  403920:	8b 16                	mov    (%esi),%edx
  403922:	89 46 04             	mov    %eax,0x4(%esi)
  403925:	8b 42 2c             	mov    0x2c(%edx),%eax
  403928:	8b ce                	mov    %esi,%ecx
  40392a:	ff d0                	call   *%eax
  40392c:	8b 16                	mov    (%esi),%edx
  40392e:	89 46 04             	mov    %eax,0x4(%esi)
  403931:	8b 42 30             	mov    0x30(%edx),%eax
  403934:	8b ce                	mov    %esi,%ecx
  403936:	ff d0                	call   *%eax
  403938:	8b 16                	mov    (%esi),%edx
  40393a:	89 46 04             	mov    %eax,0x4(%esi)
  40393d:	8b 42 34             	mov    0x34(%edx),%eax
  403940:	8b ce                	mov    %esi,%ecx
  403942:	ff d0                	call   *%eax
  403944:	8b 16                	mov    (%esi),%edx
  403946:	89 46 04             	mov    %eax,0x4(%esi)
  403949:	8b 42 38             	mov    0x38(%edx),%eax
  40394c:	8b ce                	mov    %esi,%ecx
  40394e:	ff d0                	call   *%eax
  403950:	8b 16                	mov    (%esi),%edx
  403952:	89 46 04             	mov    %eax,0x4(%esi)
  403955:	8b 42 3c             	mov    0x3c(%edx),%eax
  403958:	8b ce                	mov    %esi,%ecx
  40395a:	ff d0                	call   *%eax
  40395c:	8b 16                	mov    (%esi),%edx
  40395e:	89 46 04             	mov    %eax,0x4(%esi)
  403961:	8b 42 40             	mov    0x40(%edx),%eax
  403964:	8b ce                	mov    %esi,%ecx
  403966:	ff d0                	call   *%eax
  403968:	8b 16                	mov    (%esi),%edx
  40396a:	89 46 04             	mov    %eax,0x4(%esi)
  40396d:	8b 42 44             	mov    0x44(%edx),%eax
  403970:	8b ce                	mov    %esi,%ecx
  403972:	ff d0                	call   *%eax
  403974:	8b 16                	mov    (%esi),%edx
  403976:	89 46 04             	mov    %eax,0x4(%esi)
  403979:	8b 42 48             	mov    0x48(%edx),%eax
  40397c:	8b ce                	mov    %esi,%ecx
  40397e:	ff d0                	call   *%eax
  403980:	8b 16                	mov    (%esi),%edx
  403982:	89 46 04             	mov    %eax,0x4(%esi)
  403985:	8b 42 4c             	mov    0x4c(%edx),%eax
  403988:	8b ce                	mov    %esi,%ecx
  40398a:	ff d0                	call   *%eax
  40398c:	8b 16                	mov    (%esi),%edx
  40398e:	89 46 04             	mov    %eax,0x4(%esi)
  403991:	8b 02                	mov    (%edx),%eax
  403993:	8b ce                	mov    %esi,%ecx
  403995:	ff d0                	call   *%eax
  403997:	8b 16                	mov    (%esi),%edx
  403999:	89 46 04             	mov    %eax,0x4(%esi)
  40399c:	8b 42 04             	mov    0x4(%edx),%eax
  40399f:	8b ce                	mov    %esi,%ecx
  4039a1:	ff d0                	call   *%eax
  4039a3:	8b 16                	mov    (%esi),%edx
  4039a5:	89 46 04             	mov    %eax,0x4(%esi)
  4039a8:	8b 42 08             	mov    0x8(%edx),%eax
  4039ab:	8b ce                	mov    %esi,%ecx
  4039ad:	ff d0                	call   *%eax
  4039af:	8b 16                	mov    (%esi),%edx
  4039b1:	89 46 04             	mov    %eax,0x4(%esi)
  4039b4:	8b 42 0c             	mov    0xc(%edx),%eax
  4039b7:	8b ce                	mov    %esi,%ecx
  4039b9:	ff d0                	call   *%eax
  4039bb:	8b 16                	mov    (%esi),%edx
  4039bd:	89 46 04             	mov    %eax,0x4(%esi)
  4039c0:	8b 42 10             	mov    0x10(%edx),%eax
  4039c3:	8b ce                	mov    %esi,%ecx
  4039c5:	ff d0                	call   *%eax
  4039c7:	8b 16                	mov    (%esi),%edx
  4039c9:	89 46 04             	mov    %eax,0x4(%esi)
  4039cc:	8b 42 14             	mov    0x14(%edx),%eax
  4039cf:	8b ce                	mov    %esi,%ecx
  4039d1:	ff d0                	call   *%eax
  4039d3:	8b 16                	mov    (%esi),%edx
  4039d5:	89 46 04             	mov    %eax,0x4(%esi)
  4039d8:	8b 42 18             	mov    0x18(%edx),%eax
  4039db:	8b ce                	mov    %esi,%ecx
  4039dd:	ff d0                	call   *%eax
  4039df:	8b 16                	mov    (%esi),%edx
  4039e1:	89 46 04             	mov    %eax,0x4(%esi)
  4039e4:	8b 42 1c             	mov    0x1c(%edx),%eax
  4039e7:	8b ce                	mov    %esi,%ecx
  4039e9:	ff d0                	call   *%eax
  4039eb:	8b 16                	mov    (%esi),%edx
  4039ed:	89 46 04             	mov    %eax,0x4(%esi)
  4039f0:	8b 42 20             	mov    0x20(%edx),%eax
  4039f3:	8b ce                	mov    %esi,%ecx
  4039f5:	ff d0                	call   *%eax
  4039f7:	8b 16                	mov    (%esi),%edx
  4039f9:	89 46 04             	mov    %eax,0x4(%esi)
  4039fc:	8b 42 24             	mov    0x24(%edx),%eax
  4039ff:	8b ce                	mov    %esi,%ecx
  403a01:	ff d0                	call   *%eax
  403a03:	8b 16                	mov    (%esi),%edx
  403a05:	89 46 04             	mov    %eax,0x4(%esi)
  403a08:	8b 42 28             	mov    0x28(%edx),%eax
  403a0b:	8b ce                	mov    %esi,%ecx
  403a0d:	ff d0                	call   *%eax
  403a0f:	8b 16                	mov    (%esi),%edx
  403a11:	89 46 04             	mov    %eax,0x4(%esi)
  403a14:	8b 42 2c             	mov    0x2c(%edx),%eax
  403a17:	8b ce                	mov    %esi,%ecx
  403a19:	ff d0                	call   *%eax
  403a1b:	89 46 04             	mov    %eax,0x4(%esi)
  403a1e:	8b 16                	mov    (%esi),%edx
  403a20:	8b 42 30             	mov    0x30(%edx),%eax
  403a23:	8b ce                	mov    %esi,%ecx
  403a25:	ff d0                	call   *%eax
  403a27:	8b 16                	mov    (%esi),%edx
  403a29:	89 46 04             	mov    %eax,0x4(%esi)
  403a2c:	8b 42 34             	mov    0x34(%edx),%eax
  403a2f:	8b ce                	mov    %esi,%ecx
  403a31:	ff d0                	call   *%eax
  403a33:	8b 16                	mov    (%esi),%edx
  403a35:	89 46 04             	mov    %eax,0x4(%esi)
  403a38:	8b 42 38             	mov    0x38(%edx),%eax
  403a3b:	8b ce                	mov    %esi,%ecx
  403a3d:	ff d0                	call   *%eax
  403a3f:	8b 16                	mov    (%esi),%edx
  403a41:	89 46 04             	mov    %eax,0x4(%esi)
  403a44:	8b 42 3c             	mov    0x3c(%edx),%eax
  403a47:	8b ce                	mov    %esi,%ecx
  403a49:	ff d0                	call   *%eax
  403a4b:	8b 16                	mov    (%esi),%edx
  403a4d:	89 46 04             	mov    %eax,0x4(%esi)
  403a50:	8b 42 40             	mov    0x40(%edx),%eax
  403a53:	8b ce                	mov    %esi,%ecx
  403a55:	ff d0                	call   *%eax
  403a57:	8b 16                	mov    (%esi),%edx
  403a59:	89 46 04             	mov    %eax,0x4(%esi)
  403a5c:	8b 42 44             	mov    0x44(%edx),%eax
  403a5f:	8b ce                	mov    %esi,%ecx
  403a61:	ff d0                	call   *%eax
  403a63:	8b 16                	mov    (%esi),%edx
  403a65:	89 46 04             	mov    %eax,0x4(%esi)
  403a68:	8b 42 48             	mov    0x48(%edx),%eax
  403a6b:	8b ce                	mov    %esi,%ecx
  403a6d:	ff d0                	call   *%eax
  403a6f:	8b 16                	mov    (%esi),%edx
  403a71:	89 46 04             	mov    %eax,0x4(%esi)
  403a74:	8b 42 4c             	mov    0x4c(%edx),%eax
  403a77:	8b ce                	mov    %esi,%ecx
  403a79:	ff d0                	call   *%eax
  403a7b:	89 46 04             	mov    %eax,0x4(%esi)
  403a7e:	5e                   	pop    %esi
  403a7f:	c3                   	ret    
  403a80:	56                   	push   %esi
  403a81:	8b 71 04             	mov    0x4(%ecx),%esi
  403a84:	6a 08                	push   $0x8
  403a86:	e8 9e 04 00 00       	call   0x403f29
  403a8b:	83 c4 04             	add    $0x4,%esp
  403a8e:	85 c0                	test   %eax,%eax
  403a90:	74 0a                	je     0x403a9c
  403a92:	8b 4e 04             	mov    0x4(%esi),%ecx
  403a95:	89 48 04             	mov    %ecx,0x4(%eax)
  403a98:	8b f0                	mov    %eax,%esi
  403a9a:	eb 02                	jmp    0x403a9e
  403a9c:	33 f6                	xor    %esi,%esi
  403a9e:	6a 08                	push   $0x8
  403aa0:	e8 84 04 00 00       	call   0x403f29
  403aa5:	83 c4 04             	add    $0x4,%esp
  403aa8:	85 c0                	test   %eax,%eax
  403aaa:	74 0a                	je     0x403ab6
  403aac:	8b 56 04             	mov    0x4(%esi),%edx
  403aaf:	89 50 04             	mov    %edx,0x4(%eax)
  403ab2:	8b f0                	mov    %eax,%esi
  403ab4:	eb 02                	jmp    0x403ab8
  403ab6:	33 f6                	xor    %esi,%esi
  403ab8:	6a 08                	push   $0x8
  403aba:	e8 6a 04 00 00       	call   0x403f29
  403abf:	83 c4 04             	add    $0x4,%esp
  403ac2:	85 c0                	test   %eax,%eax
  403ac4:	74 0a                	je     0x403ad0
  403ac6:	8b 4e 04             	mov    0x4(%esi),%ecx
  403ac9:	89 48 04             	mov    %ecx,0x4(%eax)
  403acc:	8b f0                	mov    %eax,%esi
  403ace:	eb 02                	jmp    0x403ad2
  403ad0:	33 f6                	xor    %esi,%esi
  403ad2:	6a 08                	push   $0x8
  403ad4:	e8 50 04 00 00       	call   0x403f29
  403ad9:	83 c4 04             	add    $0x4,%esp
  403adc:	85 c0                	test   %eax,%eax
  403ade:	74 0a                	je     0x403aea
  403ae0:	8b 56 04             	mov    0x4(%esi),%edx
  403ae3:	89 50 04             	mov    %edx,0x4(%eax)
  403ae6:	8b f0                	mov    %eax,%esi
  403ae8:	eb 02                	jmp    0x403aec
  403aea:	33 f6                	xor    %esi,%esi
  403aec:	6a 08                	push   $0x8
  403aee:	e8 36 04 00 00       	call   0x403f29
  403af3:	83 c4 04             	add    $0x4,%esp
  403af6:	85 c0                	test   %eax,%eax
  403af8:	74 0a                	je     0x403b04
  403afa:	8b 4e 04             	mov    0x4(%esi),%ecx
  403afd:	89 48 04             	mov    %ecx,0x4(%eax)
  403b00:	8b f0                	mov    %eax,%esi
  403b02:	eb 02                	jmp    0x403b06
  403b04:	33 f6                	xor    %esi,%esi
  403b06:	6a 08                	push   $0x8
  403b08:	e8 1c 04 00 00       	call   0x403f29
  403b0d:	83 c4 04             	add    $0x4,%esp
  403b10:	85 c0                	test   %eax,%eax
  403b12:	74 0a                	je     0x403b1e
  403b14:	8b 56 04             	mov    0x4(%esi),%edx
  403b17:	89 50 04             	mov    %edx,0x4(%eax)
  403b1a:	8b f0                	mov    %eax,%esi
  403b1c:	eb 02                	jmp    0x403b20
  403b1e:	33 f6                	xor    %esi,%esi
  403b20:	6a 08                	push   $0x8
  403b22:	e8 02 04 00 00       	call   0x403f29
  403b27:	83 c4 04             	add    $0x4,%esp
  403b2a:	85 c0                	test   %eax,%eax
  403b2c:	74 0a                	je     0x403b38
  403b2e:	8b 4e 04             	mov    0x4(%esi),%ecx
  403b31:	89 48 04             	mov    %ecx,0x4(%eax)
  403b34:	8b f0                	mov    %eax,%esi
  403b36:	eb 02                	jmp    0x403b3a
  403b38:	33 f6                	xor    %esi,%esi
  403b3a:	6a 08                	push   $0x8
  403b3c:	e8 e8 03 00 00       	call   0x403f29
  403b41:	83 c4 04             	add    $0x4,%esp
  403b44:	85 c0                	test   %eax,%eax
  403b46:	74 0a                	je     0x403b52
  403b48:	8b 56 04             	mov    0x4(%esi),%edx
  403b4b:	89 50 04             	mov    %edx,0x4(%eax)
  403b4e:	8b f0                	mov    %eax,%esi
  403b50:	eb 02                	jmp    0x403b54
  403b52:	33 f6                	xor    %esi,%esi
  403b54:	6a 08                	push   $0x8
  403b56:	e8 ce 03 00 00       	call   0x403f29
  403b5b:	83 c4 04             	add    $0x4,%esp
  403b5e:	85 c0                	test   %eax,%eax
  403b60:	74 0a                	je     0x403b6c
  403b62:	8b 4e 04             	mov    0x4(%esi),%ecx
  403b65:	89 48 04             	mov    %ecx,0x4(%eax)
  403b68:	8b f0                	mov    %eax,%esi
  403b6a:	eb 02                	jmp    0x403b6e
  403b6c:	33 f6                	xor    %esi,%esi
  403b6e:	6a 08                	push   $0x8
  403b70:	e8 b4 03 00 00       	call   0x403f29
  403b75:	83 c4 04             	add    $0x4,%esp
  403b78:	85 c0                	test   %eax,%eax
  403b7a:	74 0a                	je     0x403b86
  403b7c:	8b 56 04             	mov    0x4(%esi),%edx
  403b7f:	89 50 04             	mov    %edx,0x4(%eax)
  403b82:	8b f0                	mov    %eax,%esi
  403b84:	eb 02                	jmp    0x403b88
  403b86:	33 f6                	xor    %esi,%esi
  403b88:	6a 08                	push   $0x8
  403b8a:	e8 9a 03 00 00       	call   0x403f29
  403b8f:	83 c4 04             	add    $0x4,%esp
  403b92:	85 c0                	test   %eax,%eax
  403b94:	74 0a                	je     0x403ba0
  403b96:	8b 4e 04             	mov    0x4(%esi),%ecx
  403b99:	89 48 04             	mov    %ecx,0x4(%eax)
  403b9c:	8b f0                	mov    %eax,%esi
  403b9e:	eb 02                	jmp    0x403ba2
  403ba0:	33 f6                	xor    %esi,%esi
  403ba2:	6a 08                	push   $0x8
  403ba4:	e8 80 03 00 00       	call   0x403f29
  403ba9:	83 c4 04             	add    $0x4,%esp
  403bac:	85 c0                	test   %eax,%eax
  403bae:	74 0a                	je     0x403bba
  403bb0:	8b 56 04             	mov    0x4(%esi),%edx
  403bb3:	89 50 04             	mov    %edx,0x4(%eax)
  403bb6:	8b f0                	mov    %eax,%esi
  403bb8:	eb 02                	jmp    0x403bbc
  403bba:	33 f6                	xor    %esi,%esi
  403bbc:	6a 08                	push   $0x8
  403bbe:	e8 66 03 00 00       	call   0x403f29
  403bc3:	83 c4 04             	add    $0x4,%esp
  403bc6:	85 c0                	test   %eax,%eax
  403bc8:	74 0a                	je     0x403bd4
  403bca:	8b 4e 04             	mov    0x4(%esi),%ecx
  403bcd:	89 48 04             	mov    %ecx,0x4(%eax)
  403bd0:	8b f0                	mov    %eax,%esi
  403bd2:	eb 02                	jmp    0x403bd6
  403bd4:	33 f6                	xor    %esi,%esi
  403bd6:	6a 08                	push   $0x8
  403bd8:	e8 4c 03 00 00       	call   0x403f29
  403bdd:	83 c4 04             	add    $0x4,%esp
  403be0:	85 c0                	test   %eax,%eax
  403be2:	74 0a                	je     0x403bee
  403be4:	8b 56 04             	mov    0x4(%esi),%edx
  403be7:	89 50 04             	mov    %edx,0x4(%eax)
  403bea:	8b f0                	mov    %eax,%esi
  403bec:	eb 02                	jmp    0x403bf0
  403bee:	33 f6                	xor    %esi,%esi
  403bf0:	6a 08                	push   $0x8
  403bf2:	e8 32 03 00 00       	call   0x403f29
  403bf7:	83 c4 04             	add    $0x4,%esp
  403bfa:	85 c0                	test   %eax,%eax
  403bfc:	74 0a                	je     0x403c08
  403bfe:	8b 4e 04             	mov    0x4(%esi),%ecx
  403c01:	89 48 04             	mov    %ecx,0x4(%eax)
  403c04:	8b f0                	mov    %eax,%esi
  403c06:	eb 02                	jmp    0x403c0a
  403c08:	33 f6                	xor    %esi,%esi
  403c0a:	6a 08                	push   $0x8
  403c0c:	e8 18 03 00 00       	call   0x403f29
  403c11:	83 c4 04             	add    $0x4,%esp
  403c14:	85 c0                	test   %eax,%eax
  403c16:	74 0a                	je     0x403c22
  403c18:	8b 56 04             	mov    0x4(%esi),%edx
  403c1b:	89 50 04             	mov    %edx,0x4(%eax)
  403c1e:	8b f0                	mov    %eax,%esi
  403c20:	eb 02                	jmp    0x403c24
  403c22:	33 f6                	xor    %esi,%esi
  403c24:	6a 08                	push   $0x8
  403c26:	e8 fe 02 00 00       	call   0x403f29
  403c2b:	83 c4 04             	add    $0x4,%esp
  403c2e:	85 c0                	test   %eax,%eax
  403c30:	74 0a                	je     0x403c3c
  403c32:	8b 4e 04             	mov    0x4(%esi),%ecx
  403c35:	89 48 04             	mov    %ecx,0x4(%eax)
  403c38:	8b f0                	mov    %eax,%esi
  403c3a:	eb 02                	jmp    0x403c3e
  403c3c:	33 f6                	xor    %esi,%esi
  403c3e:	6a 08                	push   $0x8
  403c40:	e8 e4 02 00 00       	call   0x403f29
  403c45:	83 c4 04             	add    $0x4,%esp
  403c48:	85 c0                	test   %eax,%eax
  403c4a:	74 0a                	je     0x403c56
  403c4c:	8b 56 04             	mov    0x4(%esi),%edx
  403c4f:	89 50 04             	mov    %edx,0x4(%eax)
  403c52:	8b f0                	mov    %eax,%esi
  403c54:	eb 02                	jmp    0x403c58
  403c56:	33 f6                	xor    %esi,%esi
  403c58:	6a 08                	push   $0x8
  403c5a:	e8 ca 02 00 00       	call   0x403f29
  403c5f:	83 c4 04             	add    $0x4,%esp
  403c62:	85 c0                	test   %eax,%eax
  403c64:	74 0a                	je     0x403c70
  403c66:	8b 4e 04             	mov    0x4(%esi),%ecx
  403c69:	89 48 04             	mov    %ecx,0x4(%eax)
  403c6c:	8b f0                	mov    %eax,%esi
  403c6e:	eb 02                	jmp    0x403c72
  403c70:	33 f6                	xor    %esi,%esi
  403c72:	6a 08                	push   $0x8
  403c74:	e8 b0 02 00 00       	call   0x403f29
  403c79:	83 c4 04             	add    $0x4,%esp
  403c7c:	85 c0                	test   %eax,%eax
  403c7e:	74 0a                	je     0x403c8a
  403c80:	8b 56 04             	mov    0x4(%esi),%edx
  403c83:	89 50 04             	mov    %edx,0x4(%eax)
  403c86:	8b f0                	mov    %eax,%esi
  403c88:	eb 02                	jmp    0x403c8c
  403c8a:	33 f6                	xor    %esi,%esi
  403c8c:	6a 08                	push   $0x8
  403c8e:	e8 96 02 00 00       	call   0x403f29
  403c93:	83 c4 04             	add    $0x4,%esp
  403c96:	85 c0                	test   %eax,%eax
  403c98:	74 0a                	je     0x403ca4
  403c9a:	8b 4e 04             	mov    0x4(%esi),%ecx
  403c9d:	89 48 04             	mov    %ecx,0x4(%eax)
  403ca0:	8b f0                	mov    %eax,%esi
  403ca2:	eb 02                	jmp    0x403ca6
  403ca4:	33 f6                	xor    %esi,%esi
  403ca6:	6a 08                	push   $0x8
  403ca8:	e8 7c 02 00 00       	call   0x403f29
  403cad:	83 c4 04             	add    $0x4,%esp
  403cb0:	85 c0                	test   %eax,%eax
  403cb2:	74 0a                	je     0x403cbe
  403cb4:	8b 56 04             	mov    0x4(%esi),%edx
  403cb7:	89 50 04             	mov    %edx,0x4(%eax)
  403cba:	8b f0                	mov    %eax,%esi
  403cbc:	eb 02                	jmp    0x403cc0
  403cbe:	33 f6                	xor    %esi,%esi
  403cc0:	6a 08                	push   $0x8
  403cc2:	e8 62 02 00 00       	call   0x403f29
  403cc7:	83 c4 04             	add    $0x4,%esp
  403cca:	85 c0                	test   %eax,%eax
  403ccc:	74 0a                	je     0x403cd8
  403cce:	8b 4e 04             	mov    0x4(%esi),%ecx
  403cd1:	89 48 04             	mov    %ecx,0x4(%eax)
  403cd4:	8b f0                	mov    %eax,%esi
  403cd6:	eb 02                	jmp    0x403cda
  403cd8:	33 f6                	xor    %esi,%esi
  403cda:	6a 08                	push   $0x8
  403cdc:	e8 48 02 00 00       	call   0x403f29
  403ce1:	83 c4 04             	add    $0x4,%esp
  403ce4:	85 c0                	test   %eax,%eax
  403ce6:	74 0a                	je     0x403cf2
  403ce8:	8b 56 04             	mov    0x4(%esi),%edx
  403ceb:	89 50 04             	mov    %edx,0x4(%eax)
  403cee:	8b f0                	mov    %eax,%esi
  403cf0:	eb 02                	jmp    0x403cf4
  403cf2:	33 f6                	xor    %esi,%esi
  403cf4:	6a 08                	push   $0x8
  403cf6:	e8 2e 02 00 00       	call   0x403f29
  403cfb:	8b c8                	mov    %eax,%ecx
  403cfd:	83 c4 04             	add    $0x4,%esp
  403d00:	85 c9                	test   %ecx,%ecx
  403d02:	74 1c                	je     0x403d20
  403d04:	8b 46 04             	mov    0x4(%esi),%eax
  403d07:	69 c0 00 ca 9a 3b    	imul   $0x3b9aca00,%eax,%eax
  403d0d:	99                   	cltd   
  403d0e:	be 15 cd 5b 07       	mov    $0x75bcd15,%esi
  403d13:	f7 fe                	idiv   %esi
  403d15:	c7 01 94 f2 40 00    	movl   $0x40f294,(%ecx)
  403d1b:	89 51 04             	mov    %edx,0x4(%ecx)
  403d1e:	eb 02                	jmp    0x403d22
  403d20:	33 c9                	xor    %ecx,%ecx
  403d22:	8b 01                	mov    (%ecx),%eax
  403d24:	8b 50 50             	mov    0x50(%eax),%edx
  403d27:	5e                   	pop    %esi
  403d28:	ff e2                	jmp    *%edx
  403d2a:	cc                   	int3   
  403d2b:	cc                   	int3   
  403d2c:	cc                   	int3   
  403d2d:	cc                   	int3   
  403d2e:	cc                   	int3   
  403d2f:	cc                   	int3   
  403d30:	55                   	push   %ebp
  403d31:	8b ec                	mov    %esp,%ebp
  403d33:	6a ff                	push   $0xffffffff
  403d35:	68 1b cb 40 00       	push   $0x40cb1b
  403d3a:	64 a1 00 00 00 00    	mov    %fs:0x0,%eax
  403d40:	50                   	push   %eax
  403d41:	83 ec 54             	sub    $0x54,%esp
  403d44:	a1 54 10 41 00       	mov    0x411054,%eax
  403d49:	33 c5                	xor    %ebp,%eax
  403d4b:	89 45 f0             	mov    %eax,-0x10(%ebp)
  403d4e:	53                   	push   %ebx
  403d4f:	56                   	push   %esi
  403d50:	57                   	push   %edi
  403d51:	50                   	push   %eax
  403d52:	8d 45 f4             	lea    -0xc(%ebp),%eax
  403d55:	64 a3 00 00 00 00    	mov    %eax,%fs:0x0
  403d5b:	68 70 f1 40 00       	push   $0x40f170
  403d60:	e8 82 02 00 00       	call   0x403fe7
  403d65:	68 a0 f1 40 00       	push   $0x40f1a0
  403d6a:	e8 78 02 00 00       	call   0x403fe7
  403d6f:	68 c8 f1 40 00       	push   $0x40f1c8
  403d74:	e8 6e 02 00 00       	call   0x403fe7
  403d79:	83 c4 0c             	add    $0xc,%esp
  403d7c:	e8 30 03 00 00       	call   0x4040b1
  403d81:	33 db                	xor    %ebx,%ebx
  403d83:	89 5d ac             	mov    %ebx,-0x54(%ebp)
  403d86:	89 5d a8             	mov    %ebx,-0x58(%ebp)
  403d89:	eb 07                	jmp    0x403d92
  403d8b:	eb 03                	jmp    0x403d90
  403d8d:	8d 49 00             	lea    0x0(%ecx),%ecx
  403d90:	33 db                	xor    %ebx,%ebx
  403d92:	8b 45 a8             	mov    -0x58(%ebp),%eax
  403d95:	50                   	push   %eax
  403d96:	e8 19 02 00 00       	call   0x403fb4
  403d9b:	e8 26 02 00 00       	call   0x403fc6
  403da0:	69 c0 10 27 00 00    	imul   $0x2710,%eax,%eax
  403da6:	99                   	cltd   
  403da7:	b9 39 05 00 00       	mov    $0x539,%ecx
  403dac:	f7 f9                	idiv   %ecx
  403dae:	6a 08                	push   $0x8
  403db0:	8b f2                	mov    %edx,%esi
  403db2:	e8 72 01 00 00       	call   0x403f29
  403db7:	8b f8                	mov    %eax,%edi
  403db9:	83 c4 08             	add    $0x8,%esp
  403dbc:	89 7d a4             	mov    %edi,-0x5c(%ebp)
  403dbf:	89 5d fc             	mov    %ebx,-0x4(%ebp)
  403dc2:	3b fb                	cmp    %ebx,%edi
  403dc4:	74 32                	je     0x403df8
  403dc6:	69 f6 10 27 00 00    	imul   $0x2710,%esi,%esi
  403dcc:	d1 fe                	sar    %esi
  403dce:	6a 08                	push   $0x8
  403dd0:	c7 07 ec f2 40 00    	movl   $0x40f2ec,(%edi)
  403dd6:	83 c6 7b             	add    $0x7b,%esi
  403dd9:	e8 4b 01 00 00       	call   0x403f29
  403dde:	83 c4 04             	add    $0x4,%esp
  403de1:	3b c3                	cmp    %ebx,%eax
  403de3:	74 0a                	je     0x403def
  403de5:	89 70 04             	mov    %esi,0x4(%eax)
  403de8:	89 47 04             	mov    %eax,0x4(%edi)
  403deb:	8b cf                	mov    %edi,%ecx
  403ded:	eb 0b                	jmp    0x403dfa
  403def:	33 c0                	xor    %eax,%eax
  403df1:	89 47 04             	mov    %eax,0x4(%edi)
  403df4:	8b cf                	mov    %edi,%ecx
  403df6:	eb 02                	jmp    0x403dfa
  403df8:	33 c9                	xor    %ecx,%ecx
  403dfa:	c7 45 fc ff ff ff ff 	movl   $0xffffffff,-0x4(%ebp)
  403e01:	8b 11                	mov    (%ecx),%edx
  403e03:	8b 02                	mov    (%edx),%eax
  403e05:	ff d0                	call   *%eax
  403e07:	33 d2                	xor    %edx,%edx
  403e09:	b9 a0 86 01 00       	mov    $0x186a0,%ecx
  403e0e:	f7 f1                	div    %ecx
  403e10:	8b f2                	mov    %edx,%esi
  403e12:	56                   	push   %esi
  403e13:	89 75 a4             	mov    %esi,-0x5c(%ebp)
  403e16:	e8 9b 02 00 00       	call   0x4040b6
  403e1b:	83 c4 04             	add    $0x4,%esp
  403e1e:	8b d8                	mov    %eax,%ebx
